     1                                  GLOBAL VGA_Init
     2                                  
     3                                  
     4                                  SECTION .utils16 progbits
     5                                  
     6                                  ; Configuración de PCI en Bochs
     7                                  ; Hecho por Dario Alpern el 6 de junio de 2015.
     8                                  ; Mayor informacion en http://www.osdever.net/FreeVGA/vga/vgareg.htm
     9                                  ;-------------------------------------------------------------------------------
    10                                  ;|  Titulo: VGA_Init                                                           |
    11                                  ;|  Versión:        1.0                     Fecha:  06/06/2015                 |
    12                                  ;|  Autor:          D. Alpern               Modelo: IA-32 (16/32bits)          |
    13                                  ;|  ------------------------------------------------------------------------   |
    14                                  ;|  Descripción:                                                               |
    15                                  ;|      Inicializa el controlador VGA                                          |
    16                                  ;|  ------------------------------------------------------------------------   |
    17                                  ;|  Recibe:                                                                    |
    18                                  ;|      Nada                                                                   |
    19                                  ;|                                                                             |
    20                                  ;|  Retorna:                                                                   |
    21                                  ;|      Nada                                                                   |
    22                                  ;|                                                                             |
    23                                  ;|  ------------------------------------------------------------------------   |
    24                                  ;|  Revisiones:                                                                |
    25                                  ;|      1.0 | 06/06/2015 | D. Alpern | Original                                |
    26                                  ;|      1.1 | 01/06/2017 | ChristiaN | Se implementa como funcion              |
    27                                  ;-------------------------------------------------------------------------------
    28                                  
    29                                  %macro leer_registro_pci 1 ;1 parámetro
    30                                     mov eax,%1
    31                                     or eax,esi
    32                                     mov dx,0x0CF8
    33                                     out dx,eax         ;Escribir palabra de configuración.
    34                                     mov dx,0x0CFC
    35                                     in eax,dx          ;Verificar si existe el dispositivo.
    36                                  %endmacro
    37                                  
    38                                  
    39                                  USE16
    40                                  VGA_Init:
    41                                  ;
    42                                  ; Recorrer bus PCI. 
    43                                  ; Bochs solo soporta bus cero ya que no tiene "PCI to PCI bridge".
    44                                  ; Cada bus tiene hasta 32 dispositivos.
    45                                  ; Si el dispositivo es compuesto puede tener hasta 8 funciones.
    46                                  ; Formato puerto 0x0CF8:
    47                                  ; Bit 31 = Siempre a "1"
    48                                  ; Bits 30-24 = Reservado (siempre a "0")
    49                                  ; Bits 23-16 = Número de bus (0 en nuestra aplicación)
    50                                  ; Bits 15-11 = Número de dispositivo (0-31)
    51                                  ; Bits 10-8 = Número de función (0-7)
    52                                  ; Bits 7-2 = Número de registro
    53                                  ; Bits 1-0: Siempre cero.
    54                                  ;
    55                                  recorrer_bus_pci:
    56                                  ;
    57 00000000 BD0040                     mov bp, 0x4000             ;Primera dirección de entrada/salida para PCI.
    58 00000003 66BF000000C0               mov edi, 0xC0000000        ;Primera dirección a asignar a dispositivos PCI.
    59 00000009 66BE00000080               mov esi, 0x80000000        ;Bus 0, dispositivo 0, función 0.
    60                                  ciclo_recorrer_bus_pci:
    61 0000000F 6681FE00000180             cmp esi,0x80010000         ;Verificar si se recorrió todo el bus 0.
    62 00000016 0F842301                   jz fin_recorrido_pci
    63                                                                ;Leer registro 0: Bits 31-16: device ID,
    64                                     leer_registro_pci 0                 ;Bits 15-0: vendor ID.
    64 0000001A 66B800000000        <1>  mov eax,%1
    64 00000020 6609F0              <1>  or eax,esi
    64 00000023 BAF80C              <1>  mov dx,0x0CF8
    64 00000026 66EF                <1>  out dx,eax
    64 00000028 BAFC0C              <1>  mov dx,0x0CFC
    64 0000002B 66ED                <1>  in eax,dx
    65 0000002D 83F8FF                     cmp ax,0xFFFF                       ;Vendor ID 0xFFFF no existe.
    66 00000030 7509                       jnz dispositivo_hallado
    67 00000032 6681C600080000             add esi,0x0800             ;Ir al siguiente dispositivo
    68 00000039 EBD4                       jmp ciclo_recorrer_bus_pci
    69                                  dispositivo_hallado:
    70                                                                ;Leer registro 0x0C: Bit 23: multiple function bit
    71                                     leer_registro_pci 0x0C
    71 0000003B 66B80C000000        <1>  mov eax,%1
    71 00000041 6609F0              <1>  or eax,esi
    71 00000044 BAF80C              <1>  mov dx,0x0CF8
    71 00000047 66EF                <1>  out dx,eax
    71 00000049 BAFC0C              <1>  mov dx,0x0CFC
    71 0000004C 66ED                <1>  in eax,dx
    72 0000004E B508                       mov ch,8                   ;Cantidad de funciones a procesar.
    73 00000050 660FBAE017                 bt eax,23
    74 00000055 7202                       jc procesar_funcion
    75 00000057 B501                       mov ch,1
    76                                  procesar_funcion:
    77                                                                ;Leer registro 0: Bits 31-16: device ID,
    78                                     leer_registro_pci 0                 ;Bits 15-0: vendor ID.
    78 00000059 66B800000000        <1>  mov eax,%1
    78 0000005F 6609F0              <1>  or eax,esi
    78 00000062 BAF80C              <1>  mov dx,0x0CF8
    78 00000065 66EF                <1>  out dx,eax
    78 00000067 BAFC0C              <1>  mov dx,0x0CFC
    78 0000006A 66ED                <1>  in eax,dx
    79 0000006C 83F8FF                     cmp ax,0xFFFF                       ;Vendor ID 0xFFFF no existe.
    80 0000006F 7523                       jnz funcion_hallada   
    81                                  ir_a_siguiente_funcion:
    82 00000071 6681C600010000             add esi,0x0100             ;Ir a la siguiente función
    83 00000078 FECD                       dec ch
    84 0000007A 75DD                       jnz procesar_funcion
    85 0000007C 6681EE00010000             sub esi,0x0100             ;Ir al siguiente dispositivo
    86 00000083 6681CE00070000             or esi,0x0700
    87 0000008A 6681C600010000             add esi,0x0100
    88 00000091 E97BFF                     jmp ciclo_recorrer_bus_pci
    89                                  funcion_hallada:
    90                                                                ;Leer registro 0x0C: Bits 22-16: header type
    91                                     leer_registro_pci 0x0C
    91 00000094 66B80C000000        <1>  mov eax,%1
    91 0000009A 6609F0              <1>  or eax,esi
    91 0000009D BAF80C              <1>  mov dx,0x0CF8
    91 000000A0 66EF                <1>  out dx,eax
    91 000000A2 BAFC0C              <1>  mov dx,0x0CFC
    91 000000A5 66ED                <1>  in eax,dx
    92 000000A7 66A900007F00               test eax,0x007F0000        ;Solo soportamos header type cero.
    93 000000AD 75C2                       jnz ir_a_siguiente_funcion
    94                                     leer_registro_pci 0x08     ;Leer clase y subclase.
    94 000000AF 66B808000000        <1>  mov eax,%1
    94 000000B5 6609F0              <1>  or eax,esi
    94 000000B8 BAF80C              <1>  mov dx,0x0CF8
    94 000000BB 66EF                <1>  out dx,eax
    94 000000BD BAFC0C              <1>  mov dx,0x0CFC
    94 000000C0 66ED                <1>  in eax,dx
    95 000000C2 B110                       mov cl,0x10                ;Apuntar al primer Base Address Register (BAR)
    96                                  
    97                                  ciclo_llenar_BAR:
    98 000000C4 660FB6C1                   movzx eax,cl
    99 000000C8 6609F0                     or eax,esi 
   100 000000CB BAF80C                     mov dx,0x0CF8
   101 000000CE 66EF                       out dx,eax
   102 000000D0 66B8FFFFFFFF               mov eax,0xFFFFFFFF         ;Escribir 0xFFFFFFFF en el BAR
   103 000000D6 BAFC0C                     mov dx,0x0CFC  
   104 000000D9 66EF                       out dx,eax
   105 000000DB 660FB6C1                   movzx eax,cl
   106                                     leer_registro_pci eax      ;Leerlo.
   106 000000DF 6689C0              <1>  mov eax,%1
   106 000000E2 6609F0              <1>  or eax,esi
   106 000000E5 BAF80C              <1>  mov dx,0x0CF8
   106 000000E8 66EF                <1>  out dx,eax
   106 000000EA BAFC0C              <1>  mov dx,0x0CFC
   106 000000ED 66ED                <1>  in eax,dx
   107 000000EF A801                       test al,1                  ;Ver si el dispositivo está mapeado en memoria.
   108 000000F1 741E                       jz mapeado_en_memoria
   109 000000F3 83E0FC                     and ax,0xFFFC              ;Eliminar los dos bits que no se usan para ports.
   110 000000F6 743A                       jz ajustar_siguiente_BAR   ;El dispositivo no usa este BAR.
   111 000000F8 66F7D0                     not eax                    ;Convertir en cantidad de bytes que se usa - 1.
   112 000000FB 6689C3                     mov ebx,eax
   113 000000FE 4D                         dec bp                     ;Poner BP en dirección múltiplo de la cantidad
   114 000000FF 09C5                       or bp,ax                   ;de bytes que usa esta función.
   115 00000101 45                         inc bp
   116 00000102 660FB6C1                   movzx eax,cl
   117 00000106 6609F0                     or eax,esi 
   118 00000109 BAF80C                     mov dx,0x0CF8
   119 0000010C 6689E8                     mov eax,ebp
   120 0000010F EB17                       jmp ajustar_BAR
   121                                  mapeado_en_memoria:
   122 00000111 6683E0F0                   and eax,0xFFFFFFF0         ;Eliminar los 4 bits que no se usan para puntero.
   123 00000115 741B                       jz ajustar_siguiente_BAR   ;El dispositivo no usa este BAR.
   124 00000117 66F7D0                     not eax                    ;Convertir en cantidad de bytes que se usa - 1.
   125 0000011A 6689C3                     mov ebx,eax
   126 0000011D 6609F0                     or eax,esi 
   127 00000120 BAF80C                     mov dx,0x0CF8
   128 00000123 66EF                       out dx,eax
   129 00000125 6689F8                     mov eax,edi
   130                                  ajustar_BAR:
   131 00000128 BAFC0C                     mov dx,0x0CFC  
   132 0000012B 66EF                       out dx,eax
   133 0000012D 6601DD                     add ebp,ebx         ;Apuntar a puerto después de esta función.
   134 00000130 6645                       inc ebp
   135                                  ajustar_siguiente_BAR:
   136 00000132 80C104                     add cl,4            ;Apuntar al siguiente BAR.
   137 00000135 80F928                     cmp cl,0x28         ;Todos los BAR listos?
   138 00000138 758A                       jnz ciclo_llenar_BAR
   139 0000013A E934FF                     jmp ir_a_siguiente_funcion
   140                                  fin_recorrido_pci:
   141                                  
   142                                   ;
   143                                   ; Inicializar pantalla con texto
   144                                   ;
   145                                  habilitar_modo_texto:
   146                                     ;-> Establecer los registros MISC <-
   147 0000013D BAC203                     mov dx, 0x3C2  ;VGA_MISC_ADDR
   148 00000140 B067                       mov al, 0x67
   149 00000142 EE                         out dx, al
   150 00000143 BADA03                     mov dx, 0x3DA  ;VGA_STATUS_ADDR
   151 00000146 B000                       mov al, 0
   152 00000148 EE                         out dx, al
   153                                  
   154                                     ;-> Establecer los registros SEQ <-
   155 00000149 FC                         cld
   156 0000014A B100                       mov cl, 0
   157 0000014C BE[1402]                   mov si, seq_regs_data
   158                                  
   159                                  seq_regs_loop:
   160 0000014F BAC403                     mov dx, 0x3C4           ;Puerto del secuenciador VGA (indice)
   161 00000152 88C8                       mov al, cl
   162 00000154 EE                         out dx, al
   163                                  
   164 00000155 42                         inc dx                  ;Puerto del secuenciador VGA (datos)
   165 00000156 2EAC                       cs lodsb                ;Leer dato a escribit en puerto.
   166 00000158 EE                         out dx, al              ;Escribir en controlador VGA.
   167                                  
   168 00000159 FEC1                       inc cl                  ;Siguiente indice.
   169 0000015B 80F905                     cmp cl, 5
   170 0000015E 75EF                       jne seq_regs_loop
   171                                  
   172                                     ;Eliminar protección de los registros 0 a 7 del controlador VGA.
   173 00000160 B8112C                     mov ax, 0x2C11
   174 00000163 BAD403                     mov dx, 0x3D4              ;Puerto del controlador VGA (indice VGA_CRTC_ADDR)
   175 00000166 EF                         out dx, ax
   176                                  
   177                                     ;-> Establecer los registros CRTC <-
   178 00000167 B100                       mov cl, 0
   179 00000169 BE[1902]                   mov si, crtc_regs_data
   180                                  crtc_regs_loop:
   181 0000016C BAD403                     mov dx, 0x3D4           ;Puerto del controlador VGA (indice)
   182 0000016F 88C8                       mov al, cl
   183 00000171 EE                         out dx, al
   184 00000172 2EAC                       cs lodsb
   185 00000174 42                         inc dx                  ;Puerto del controlador VGA (datos)
   186 00000175 EE                         out dx, al
   187 00000176 FEC1                       inc cl
   188 00000178 80F919                     cmp cl, 25
   189 0000017B 72EF                       jb crtc_regs_loop
   190                                  
   191                                  inicializar_paleta:
   192 0000017D B100                       mov cl, 0
   193 0000017F BE[5002]                   mov si, palette_data
   194                                  inicializar_paleta_loop:
   195 00000182 BAC803                     mov dx, 0x3C8           ;Puerto de indice paleta
   196 00000185 88C8                       mov al, cl              ;Escribir número de registro
   197 00000187 EE                         out dx, al
   198                                  
   199 00000188 42                         inc dx                  ;Apuntar al puerto de datos.
   200 00000189 2EAC                       cs lodsb                ;Leer dato a cargar en el registro.
   201 0000018B EE                         out dx, al              ;Cargar dato en el registro.
   202 0000018C 2EAC                       cs lodsb                ;Leer dato a cargar en el registro.
   203 0000018E EE                         out dx, al              ;Cargar dato en el registro.
   204 0000018F 2EAC                       cs lodsb                ;Leer dato a cargar en el registro.
   205 00000191 EE                         out dx, al              ;Cargar dato en el registro.
   206                                  
   207 00000192 FEC1                       inc cl
   208 00000194 80F940                     cmp cl,64
   209 00000197 72E9                       jb inicializar_paleta_loop
   210                                  
   211                                     ;-> Establecer los registros del controlador grafico VGA <-
   212 00000199 B100                       mov cl, 0
   213 0000019B BE[3202]                   mov si, graphics_regs_data
   214                                  graphics_regs_loop:
   215 0000019E BACE03                     mov dx, 0x3CE              ;Puerto del controlador grafico VGA (indice)
   216 000001A1 88C8                       mov al, cl
   217 000001A3 EE                         out dx, al
   218                                  
   219 000001A4 2EAC                       cs lodsb
   220 000001A6 42                         inc dx                     ;0x3CF
   221 000001A7 EE                         out dx, al                 ;Puerto del controlador grafico VGA (datos)
   222                                  
   223 000001A8 FEC1                       inc cl
   224 000001AA 80F909                     cmp cl, 9
   225 000001AD 72EF                       jb graphics_regs_loop
   226                                  
   227                                     ;-> Establecer el registro de estado para emulacion de color <-
   228 000001AF BADA03                     mov dx, 0x3DA              ;Puerto de estado para emulacion de color
   229 000001B2 EC                         in al, dx
   230                                  
   231 000001B3 B100                       mov cl, 0
   232 000001B5 BE[3B02]                   mov si, attrcon_regs_data
   233                                  attrcon_regs_loop:
   234 000001B8 BAC003                     mov dx, 0x3C0              ;Registro de atributos del controlador
   235 000001BB 88C8                       mov al, cl                 ;Escribir número de registro
   236 000001BD EE                         out dx, al
   237 000001BE 2EAC                       cs lodsb                   ;Leer dato a cargar en el registro.
   238 000001C0 EE                         out dx, al                 ;Cargar dato en el registro.
   239                                   
   240 000001C1 FEC1                       inc cl                     ;Apuntar al siguiente registro.
   241 000001C3 80F915                     cmp cl, 21                 ;Ver si se escribieron todos los registros
   242 000001C6 72F0                       jb attrcon_regs_loop       ;Saltar si no es asi.
   243                                  
   244 000001C8 B020                       mov al, 0x20               ;Reactivar el refresco de pantalla porque la
   245 000001CA EE                         out dx, al                 ;escritura a registros de ATTRCON lo desactiva.
   246                                  
   247 000001CB BACE03                     mov dx, 0x03ce             ;Puerto del controlador grafico VGA (indice)
   248 000001CE B80500                     mov ax, 5                  ;borrar modo par/impar
   249 000001D1 EF                         out dx, ax
   250                                  
   251 000001D2 B80604                     mov ax, 0x0406             ;Mapear memoria VGA a 0xA0000.
   252 000001D5 EF                         out dx, ax
   253                                  
   254 000001D6 BAC403                     mov dx, 0x03c4             ;Poner el plano de bits número 2
   255 000001D9 B80204                     mov ax, 0x0402
   256 000001DC EF                         out dx, ax
   257                                  
   258 000001DD B80406                     mov ax, 0x0604             ;Borrar modo par/impar.
   259 000001E0 EF                         out dx, ax
   260                                  
   261 000001E1 B800A0                     mov ax, 0xA000             ;Copiar mapa de caracteres.
   262 000001E4 8EC0                       mov es, ax
   263 000001E6 BF0000                     mov di, 0x0000
   264 000001E9 BE[1003]                   mov si, font16x8
   265 000001EC B90001                     mov cx, 256
   266                                  ciclo_copia_fonts:
   267 000001EF 2E66A5                     cs movsd                   ;Copiar 16 bytes al bitmap.
   268 000001F2 2E66A5                     cs movsd
   269 000001F5 2E66A5                     cs movsd
   270 000001F8 2E66A5                     cs movsd
   271 000001FB 83C710                     add di, 16                 ;Saltear 16 bytes (VGA requiere 32 bytes/carácter)
   272 000001FE E2EF                       loop ciclo_copia_fonts
   273                                  
   274 00000200 B80203                     mov ax, 0x0302             ;Volver a la operación normal.
   275 00000203 EF                         out dx, ax
   276 00000204 B80402                     mov ax, 0x0204
   277 00000207 EF                         out dx, ax
   278 00000208 BACE03                     mov dx, 0x03ce
   279 0000020B B80510                     mov ax, 0x1005
   280 0000020E EF                         out dx, ax
   281 0000020F B8060E                     mov ax, 0x0E06
   282 00000212 EF                         out dx, ax
   283 00000213 C3                         ret 
   284                                  
   285                                  seq_regs_data:
   286 00000214 03                         db 0x03  ;Reset Register
   287 00000215 00                         db 0x00  ;Clocking Mode Register
   288 00000216 03                         db 0x03  ;Map Mask Register
   289 00000217 00                         db 0x00  ;Character Map Select Register
   290 00000218 02                         db 0x02  ;Sequencer Memory Mode Register
   291                                  
   292                                  crtc_regs_data:
   293 00000219 5F                         db 0x5F  ;Cantidad caracteres menos 5 incluyendo borde.
   294 0000021A 4F                         db 0x4F  ;Cantidad caracteres visualizados menos 1.
   295 0000021B 50                         db 0x50  ;Carácter en el que comienza el blanqueo.
   296 0000021C 82                         db 0x82  ;Fin de blanqueo horizontal.
   297 0000021D 55                         db 0x55  ;Carácter donde comienza el retrazo horizontal.
   298 0000021E 81                         db 0x81  ;Fin del retrazo horizontal.
   299 0000021F BF                         db 0xBF  ;Cantidad de scan lines - 2 (0x1BF = 447).
   300 00000220 1F                         db 0x1F  ;Bits 9 y 8 de varios registros.
   301 00000221 00                         db 0x00  ;Primer scan line a ser visualizado.
   302 00000222 4F                         db 0x4F  ;Bits 4-0: máxima linea de scan.
   303 00000223 0D                         db 0x0D  ;Scan line donde comienza el cursor.
   304 00000224 0E                         db 0x0E  ;Scan line donde termina el cursor.
   305 00000225 00                         db 0x00  ;Bits 15-8 del inicio del buffer de video.
   306 00000226 00                         db 0x00  ;Bits 7-0 del inicio del buffer de video.
   307 00000227 05                         db 0x05  ;Bits 15-8 de la posición del cursor en pantalla.
   308 00000228 50                         db 0x50  ;Bits 7-0 de la posición del cursor en pantalla.
   309 00000229 9C                         db 0x9C  ;Inicio retrazado vertical (0x19C = 412).
   310 0000022A 8E                         db 0x8E  ;Fin retrazado vertical (bits 3-0) y protección de
   311                                              ;escritura para registros cero a 7 (bit 7).
   312 0000022B 8F                         db 0x8F  ;Fin de refresco vertical (0x18F = 409)
   313 0000022C 28                         db 0x28  ;Cantidad de bytes por scan line dividido 4.
   314 0000022D 1F                         db 0x1F  ;Scan line para el subrayado.
   315 0000022E 96                         db 0x96  ;Inicio blanqueo vertical (0x196 = 406)
   316 0000022F B9                         db 0xB9  ;Fin blanqueo vertical (0x1B9 = 441)
   317 00000230 A3                         db 0xA3  ;Registro de control de modo.
   318 00000231 FF                         db 0xFF  ;Registro de comparación de lineas.
   319                                  
   320                                  graphics_regs_data:
   321 00000232 00                         db 0x00  ;Set/Reset Register
   322 00000233 00                         db 0x00  ;Enable Set/Reset Register
   323 00000234 00                         db 0x00  ;Color Compare Register
   324 00000235 00                         db 0x00  ;Data Rotate Register
   325 00000236 00                         db 0x00  ;Graphics Mode Register  
   326 00000237 10                         db 0x10  ;Miscellaneous Graphics Register
   327 00000238 0E                         db 0x0E  ;Color Don't Care Register
   328 00000239 00                         db 0x00  ;Bit Mask Register
   329 0000023A FF                         db 0xFF
   330                                  
   331                                  attrcon_regs_data:
   332 0000023B 00                         db 0x00  ;Paleta para color 0.
   333 0000023C 01                         db 0x01  ;Paleta para color 1.
   334 0000023D 02                         db 0x02  ;Paleta para color 2.
   335 0000023E 03                         db 0x03  ;Paleta para color 3.
   336 0000023F 04                         db 0x04  ;Paleta para color 4.
   337 00000240 05                         db 0x05  ;Paleta para color 5.
   338 00000241 14                         db 0x14  ;Paleta para color 6.
   339 00000242 07                         db 0x07  ;Paleta para color 7.
   340 00000243 38                         db 0x38  ;Paleta para color 8.
   341 00000244 39                         db 0x39  ;Paleta para color 9.
   342 00000245 3A                         db 0x3A  ;Paleta para color 10.
   343 00000246 3B                         db 0x3B  ;Paleta para color 11.
   344 00000247 3C                         db 0x3C  ;Paleta para color 12.
   345 00000248 3D                         db 0x3D  ;Paleta para color 13.
   346 00000249 3E                         db 0x3E  ;Paleta para color 14.
   347 0000024A 3F                         db 0x3F  ;Paleta para color 15.
   348 0000024B 0C                         db 0x0C  ;Registro de control de atributos.
   349                                              ;* Bit 7: Fuente de los bits de video P5 y P4 al DAC de video
   350                                              ;* Bit 6: Habilitación de 256 colores.
   351                                              ;* Bit 5: Modo de desplazamiento de pixeles
   352                                              ;* Bit 4: No usado
   353                                              ;* Bit 3: "1" para habilitar blink, "0" para tener 16 colores de fondo.
   354                                              ;* Bit 2: Replicación de octava a novena columna para caracteres
   355                                              ;         0xC0 - 0xDF (para dibujar bloques en modo texto).
   356                                              ;* Bit 1: Sin uso
   357                                              ;* Bit 0: Habilitación de gráficos.
   358 0000024C 00                         db 0x00  ;Color usado para el borde en algunos modos.
   359 0000024D 0F                         db 0x0F  ;Habilitación de planos de color.
   360 0000024E 08                         db 0x08  ;Desplazamiento de pixeles de video hacia la izquierda.
   361 0000024F 00                         db 0x00  ;Registro de selección de color.
   362                                  
   363                                  palette_data:
   364 00000250 000000                     db 0x00, 0x00, 0x00    ;RGB of color #0
   365 00000253 00002A                     db 0x00, 0x00, 0x2a
   366 00000256 002A00                     db 0x00, 0x2a, 0x00
   367 00000259 002A2A                     db 0x00, 0x2a, 0x2a
   368 0000025C 2A0000                     db 0x2a, 0x00, 0x00    ;RGB of color #4
   369 0000025F 2A002A                     db 0x2a, 0x00, 0x2a
   370 00000262 2A2A00                     db 0x2a, 0x2a, 0x00
   371 00000265 2A2A2A                     db 0x2a, 0x2a, 0x2a
   372 00000268 000015                     db 0x00, 0x00, 0x15    ;RGB of color #8
   373 0000026B 00003F                     db 0x00, 0x00, 0x3f
   374 0000026E 002A15                     db 0x00, 0x2a, 0x15
   375 00000271 002A3F                     db 0x00, 0x2a, 0x3f
   376 00000274 2A0015                     db 0x2a, 0x00, 0x15    ;RGB of color #12
   377 00000277 2A003F                     db 0x2a, 0x00, 0x3f
   378 0000027A 2A2A15                     db 0x2a, 0x2a, 0x15
   379 0000027D 2A2A3F                     db 0x2a, 0x2a, 0x3f
   380 00000280 001500                     db 0x00, 0x15, 0x00    ;RGB of color #16
   381 00000283 00152A                     db 0x00, 0x15, 0x2a
   382 00000286 003F00                     db 0x00, 0x3f, 0x00
   383 00000289 003F2A                     db 0x00, 0x3f, 0x2a
   384 0000028C 2A1500                     db 0x2a, 0x15, 0x00    ;RGB of color #20
   385 0000028F 2A152A                     db 0x2a, 0x15, 0x2a
   386 00000292 2A3F00                     db 0x2a, 0x3f, 0x00
   387 00000295 2A3F2A                     db 0x2a, 0x3f, 0x2a
   388 00000298 001515                     db 0x00, 0x15, 0x15    ;RGB of color #24
   389 0000029B 00153F                     db 0x00, 0x15, 0x3f
   390 0000029E 003F15                     db 0x00, 0x3f, 0x15
   391 000002A1 003F3F                     db 0x00, 0x3f, 0x3f
   392 000002A4 2A1515                     db 0x2a, 0x15, 0x15    ;RGB of color #28
   393 000002A7 2A153F                     db 0x2a, 0x15, 0x3f
   394 000002AA 2A3F15                     db 0x2a, 0x3f, 0x15
   395 000002AD 2A3F3F                     db 0x2a, 0x3f, 0x3f
   396 000002B0 150000                     db 0x15, 0x00, 0x00    ;RGB of color #32
   397 000002B3 15002A                     db 0x15, 0x00, 0x2a
   398 000002B6 152A00                     db 0x15, 0x2a, 0x00
   399 000002B9 152A2A                     db 0x15, 0x2a, 0x2a
   400 000002BC 3F0000                     db 0x3f, 0x00, 0x00    ;RGB of color #36
   401 000002BF 3F002A                     db 0x3f, 0x00, 0x2a
   402 000002C2 3F2A00                     db 0x3f, 0x2a, 0x00
   403 000002C5 3F2A2A                     db 0x3f, 0x2a, 0x2a
   404 000002C8 150015                     db 0x15, 0x00, 0x15    ;RGB of color #40
   405 000002CB 15003F                     db 0x15, 0x00, 0x3f
   406 000002CE 152A15                     db 0x15, 0x2a, 0x15
   407 000002D1 152A3F                     db 0x15, 0x2a, 0x3f
   408 000002D4 3F0015                     db 0x3f, 0x00, 0x15    ;RGB of color #44
   409 000002D7 3F003F                     db 0x3f, 0x00, 0x3f
   410 000002DA 3F2A15                     db 0x3f, 0x2a, 0x15
   411 000002DD 3F2A3F                     db 0x3f, 0x2a, 0x3f
   412 000002E0 151500                     db 0x15, 0x15, 0x00    ;RGB of color #48
   413 000002E3 15152A                     db 0x15, 0x15, 0x2a
   414 000002E6 153F00                     db 0x15, 0x3f, 0x00
   415 000002E9 153F2A                     db 0x15, 0x3f, 0x2a
   416 000002EC 3F1500                     db 0x3f, 0x15, 0x00    ;RGB of color #52
   417 000002EF 3F152A                     db 0x3f, 0x15, 0x2a
   418 000002F2 3F3F00                     db 0x3f, 0x3f, 0x00
   419 000002F5 3F3F2A                     db 0x3f, 0x3f, 0x2a
   420 000002F8 151515                     db 0x15, 0x15, 0x15    ;RGB of color #56
   421 000002FB 15153F                     db 0x15, 0x15, 0x3f
   422 000002FE 153F15                     db 0x15, 0x3f, 0x15
   423 00000301 153F3F                     db 0x15, 0x3f, 0x3f
   424 00000304 3F1515                     db 0x3f, 0x15, 0x15    ;RGB of color #60
   425 00000307 3F153F                     db 0x3f, 0x15, 0x3f
   426 0000030A 3F3F15                     db 0x3f, 0x3f, 0x15
   427 0000030D 3F3F3F                     db 0x3f, 0x3f, 0x3f
   428                                  
   429                                    ;Fonts de dominio público de Joseph Gil
   430                                  font16x8:
   431 00000310 000000000000000000-        db 0x00, 0x00, 0x00, 0x00, 0x00, 0x00, 0x00, 0x00, 0x00, 0x00, 0x00, 0x00, 0x00, 0x00, 0x00, 0x00
   431 00000319 00000000000000     
   432 00000320 00007E81A58181BD99-        db 0x00, 0x00, 0x7e, 0x81, 0xa5, 0x81, 0x81, 0xbd, 0x99, 0x81, 0x81, 0x7e, 0x00, 0x00, 0x00, 0x00
   432 00000329 81817E00000000     
   433 00000330 00007EFFDBFFFFC3E7-        db 0x00, 0x00, 0x7e, 0xff, 0xdb, 0xff, 0xff, 0xc3, 0xe7, 0xff, 0xff, 0x7e, 0x00, 0x00, 0x00, 0x00
   433 00000339 FFFF7E00000000     
   434 00000340 000000006CFEFEFEFE-        db 0x00, 0x00, 0x00, 0x00, 0x6c, 0xfe, 0xfe, 0xfe, 0xfe, 0x7c, 0x38, 0x10, 0x00, 0x00, 0x00, 0x00
   434 00000349 7C381000000000     
   435 00000350 0000000010387CFE7C-        db 0x00, 0x00, 0x00, 0x00, 0x10, 0x38, 0x7c, 0xfe, 0x7c, 0x38, 0x10, 0x00, 0x00, 0x00, 0x00, 0x00
   435 00000359 38100000000000     
   436 00000360 000000183C3CE7E7E7-        db 0x00, 0x00, 0x00, 0x18, 0x3c, 0x3c, 0xe7, 0xe7, 0xe7, 0x18, 0x18, 0x3c, 0x00, 0x00, 0x00, 0x00
   436 00000369 18183C00000000     
   437 00000370 000000183C7EFFFF7E-        db 0x00, 0x00, 0x00, 0x18, 0x3c, 0x7e, 0xff, 0xff, 0x7e, 0x18, 0x18, 0x3c, 0x00, 0x00, 0x00, 0x00
   437 00000379 18183C00000000     
   438 00000380 000000000000183C3C-        db 0x00, 0x00, 0x00, 0x00, 0x00, 0x00, 0x18, 0x3c, 0x3c, 0x18, 0x00, 0x00, 0x00, 0x00, 0x00, 0x00
   438 00000389 18000000000000     
   439 00000390 FFFFFFFFFFFFE7C3C3-        db 0xff, 0xff, 0xff, 0xff, 0xff, 0xff, 0xe7, 0xc3, 0xc3, 0xe7, 0xff, 0xff, 0xff, 0xff, 0xff, 0xff
   439 00000399 E7FFFFFFFFFFFF     
   440 000003A0 00000000003C664242-        db 0x00, 0x00, 0x00, 0x00, 0x00, 0x3c, 0x66, 0x42, 0x42, 0x66, 0x3c, 0x00, 0x00, 0x00, 0x00, 0x00
   440 000003A9 663C0000000000     
   441 000003B0 FFFFFFFFFFC399BDBD-        db 0xff, 0xff, 0xff, 0xff, 0xff, 0xc3, 0x99, 0xbd, 0xbd, 0x99, 0xc3, 0xff, 0xff, 0xff, 0xff, 0xff
   441 000003B9 99C3FFFFFFFFFF     
   442 000003C0 00001E0E1A3278CCCC-        db 0x00, 0x00, 0x1e, 0x0e, 0x1a, 0x32, 0x78, 0xcc, 0xcc, 0xcc, 0xcc, 0x78, 0x00, 0x00, 0x00, 0x00
   442 000003C9 CCCC7800000000     
   443 000003D0 00003C666666663C18-        db 0x00, 0x00, 0x3c, 0x66, 0x66, 0x66, 0x66, 0x3c, 0x18, 0x7e, 0x18, 0x18, 0x00, 0x00, 0x00, 0x00
   443 000003D9 7E181800000000     
   444 000003E0 00003F333F30303030-        db 0x00, 0x00, 0x3f, 0x33, 0x3f, 0x30, 0x30, 0x30, 0x30, 0x70, 0xf0, 0xe0, 0x00, 0x00, 0x00, 0x00
   444 000003E9 70F0E000000000     
   445 000003F0 00007F637F63636363-        db 0x00, 0x00, 0x7f, 0x63, 0x7f, 0x63, 0x63, 0x63, 0x63, 0x67, 0xe7, 0xe6, 0xc0, 0x00, 0x00, 0x00
   445 000003F9 67E7E6C0000000     
   446 00000400 0000001818DB3CE73C-        db 0x00, 0x00, 0x00, 0x18, 0x18, 0xdb, 0x3c, 0xe7, 0x3c, 0xdb, 0x18, 0x18, 0x00, 0x00, 0x00, 0x00
   446 00000409 DB181800000000     
   447 00000410 0080C0E0F0F8FEF8F0-        db 0x00, 0x80, 0xc0, 0xe0, 0xf0, 0xf8, 0xfe, 0xf8, 0xf0, 0xe0, 0xc0, 0x80, 0x00, 0x00, 0x00, 0x00
   447 00000419 E0C08000000000     
   448 00000420 0002060E1E3EFE3E1E-        db 0x00, 0x02, 0x06, 0x0e, 0x1e, 0x3e, 0xfe, 0x3e, 0x1e, 0x0e, 0x06, 0x02, 0x00, 0x00, 0x00, 0x00
   448 00000429 0E060200000000     
   449 00000430 0000183C7E1818187E-        db 0x00, 0x00, 0x18, 0x3c, 0x7e, 0x18, 0x18, 0x18, 0x7e, 0x3c, 0x18, 0x00, 0x00, 0x00, 0x00, 0x00
   449 00000439 3C180000000000     
   450 00000440 000066666666666666-        db 0x00, 0x00, 0x66, 0x66, 0x66, 0x66, 0x66, 0x66, 0x66, 0x00, 0x66, 0x66, 0x00, 0x00, 0x00, 0x00
   450 00000449 00666600000000     
   451 00000450 00007FDBDBDB7B1B1B-        db 0x00, 0x00, 0x7f, 0xdb, 0xdb, 0xdb, 0x7b, 0x1b, 0x1b, 0x1b, 0x1b, 0x1b, 0x00, 0x00, 0x00, 0x00
   451 00000459 1B1B1B00000000     
   452 00000460 007CC660386CC6C66C-        db 0x00, 0x7c, 0xc6, 0x60, 0x38, 0x6c, 0xc6, 0xc6, 0x6c, 0x38, 0x0c, 0xc6, 0x7c, 0x00, 0x00, 0x00
   452 00000469 380CC67C000000     
   453 00000470 0000000000000000FE-        db 0x00, 0x00, 0x00, 0x00, 0x00, 0x00, 0x00, 0x00, 0xfe, 0xfe, 0xfe, 0xfe, 0x00, 0x00, 0x00, 0x00
   453 00000479 FEFEFE00000000     
   454 00000480 0000183C7E1818187E-        db 0x00, 0x00, 0x18, 0x3c, 0x7e, 0x18, 0x18, 0x18, 0x7e, 0x3c, 0x18, 0x7e, 0x00, 0x00, 0x00, 0x00
   454 00000489 3C187E00000000     
   455 00000490 0000183C7E18181818-        db 0x00, 0x00, 0x18, 0x3c, 0x7e, 0x18, 0x18, 0x18, 0x18, 0x18, 0x18, 0x18, 0x00, 0x00, 0x00, 0x00
   455 00000499 18181800000000     
   456 000004A0 000018181818181818-        db 0x00, 0x00, 0x18, 0x18, 0x18, 0x18, 0x18, 0x18, 0x18, 0x7e, 0x3c, 0x18, 0x00, 0x00, 0x00, 0x00
   456 000004A9 7E3C1800000000     
   457 000004B0 0000000000180CFE0C-        db 0x00, 0x00, 0x00, 0x00, 0x00, 0x18, 0x0c, 0xfe, 0x0c, 0x18, 0x00, 0x00, 0x00, 0x00, 0x00, 0x00
   457 000004B9 18000000000000     
   458 000004C0 00000000003060FE60-        db 0x00, 0x00, 0x00, 0x00, 0x00, 0x30, 0x60, 0xfe, 0x60, 0x30, 0x00, 0x00, 0x00, 0x00, 0x00, 0x00
   458 000004C9 30000000000000     
   459 000004D0 000000000000C0C0C0-        db 0x00, 0x00, 0x00, 0x00, 0x00, 0x00, 0xc0, 0xc0, 0xc0, 0xfe, 0x00, 0x00, 0x00, 0x00, 0x00, 0x00
   459 000004D9 FE000000000000     
   460 000004E0 00000000002466FF66-        db 0x00, 0x00, 0x00, 0x00, 0x00, 0x24, 0x66, 0xff, 0x66, 0x24, 0x00, 0x00, 0x00, 0x00, 0x00, 0x00
   460 000004E9 24000000000000     
   461 000004F0 000000001038387C7C-        db 0x00, 0x00, 0x00, 0x00, 0x10, 0x38, 0x38, 0x7c, 0x7c, 0xfe, 0xfe, 0x00, 0x00, 0x00, 0x00, 0x00
   461 000004F9 FEFE0000000000     
   462 00000500 00000000FEFE7C7C38-        db 0x00, 0x00, 0x00, 0x00, 0xfe, 0xfe, 0x7c, 0x7c, 0x38, 0x38, 0x10, 0x00, 0x00, 0x00, 0x00, 0x00
   462 00000509 38100000000000     
   463 00000510 000000000000000000-        db 0x00, 0x00, 0x00, 0x00, 0x00, 0x00, 0x00, 0x00, 0x00, 0x00, 0x00, 0x00, 0x00, 0x00, 0x00, 0x00
   463 00000519 00000000000000     
   464 00000520 0000183C3C3C181818-        db 0x00, 0x00, 0x18, 0x3c, 0x3c, 0x3c, 0x18, 0x18, 0x18, 0x00, 0x18, 0x18, 0x00, 0x00, 0x00, 0x00
   464 00000529 00181800000000     
   465 00000530 006666662400000000-        db 0x00, 0x66, 0x66, 0x66, 0x24, 0x00, 0x00, 0x00, 0x00, 0x00, 0x00, 0x00, 0x00, 0x00, 0x00, 0x00
   465 00000539 00000000000000     
   466 00000540 0000006C6CFE6C6C6C-        db 0x00, 0x00, 0x00, 0x6c, 0x6c, 0xfe, 0x6c, 0x6c, 0x6c, 0xfe, 0x6c, 0x6c, 0x00, 0x00, 0x00, 0x00
   466 00000549 FE6C6C00000000     
   467 00000550 18187CC6C2C07C0606-        db 0x18, 0x18, 0x7c, 0xc6, 0xc2, 0xc0, 0x7c, 0x06, 0x06, 0x86, 0xc6, 0x7c, 0x18, 0x18, 0x00, 0x00
   467 00000559 86C67C18180000     
   468 00000560 00000000C2C60C1830-        db 0x00, 0x00, 0x00, 0x00, 0xc2, 0xc6, 0x0c, 0x18, 0x30, 0x60, 0xc6, 0x86, 0x00, 0x00, 0x00, 0x00
   468 00000569 60C68600000000     
   469 00000570 0000386C6C3876DCCC-        db 0x00, 0x00, 0x38, 0x6c, 0x6c, 0x38, 0x76, 0xdc, 0xcc, 0xcc, 0xcc, 0x76, 0x00, 0x00, 0x00, 0x00
   469 00000579 CCCC7600000000     
   470 00000580 003030306000000000-        db 0x00, 0x30, 0x30, 0x30, 0x60, 0x00, 0x00, 0x00, 0x00, 0x00, 0x00, 0x00, 0x00, 0x00, 0x00, 0x00
   470 00000589 00000000000000     
   471 00000590 00000C183030303030-        db 0x00, 0x00, 0x0c, 0x18, 0x30, 0x30, 0x30, 0x30, 0x30, 0x30, 0x18, 0x0c, 0x00, 0x00, 0x00, 0x00
   471 00000599 30180C00000000     
   472 000005A0 000030180C0C0C0C0C-        db 0x00, 0x00, 0x30, 0x18, 0x0c, 0x0c, 0x0c, 0x0c, 0x0c, 0x0c, 0x18, 0x30, 0x00, 0x00, 0x00, 0x00
   472 000005A9 0C183000000000     
   473 000005B0 0000000000663CFF3C-        db 0x00, 0x00, 0x00, 0x00, 0x00, 0x66, 0x3c, 0xff, 0x3c, 0x66, 0x00, 0x00, 0x00, 0x00, 0x00, 0x00
   473 000005B9 66000000000000     
   474 000005C0 000000000018187E18-        db 0x00, 0x00, 0x00, 0x00, 0x00, 0x18, 0x18, 0x7e, 0x18, 0x18, 0x00, 0x00, 0x00, 0x00, 0x00, 0x00
   474 000005C9 18000000000000     
   475 000005D0 000000000000000000-        db 0x00, 0x00, 0x00, 0x00, 0x00, 0x00, 0x00, 0x00, 0x00, 0x18, 0x18, 0x18, 0x30, 0x00, 0x00, 0x00
   475 000005D9 18181830000000     
   476 000005E0 00000000000000FE00-        db 0x00, 0x00, 0x00, 0x00, 0x00, 0x00, 0x00, 0xfe, 0x00, 0x00, 0x00, 0x00, 0x00, 0x00, 0x00, 0x00
   476 000005E9 00000000000000     
   477 000005F0 000000000000000000-        db 0x00, 0x00, 0x00, 0x00, 0x00, 0x00, 0x00, 0x00, 0x00, 0x00, 0x18, 0x18, 0x00, 0x00, 0x00, 0x00
   477 000005F9 00181800000000     
   478 00000600 0000000002060C1830-        db 0x00, 0x00, 0x00, 0x00, 0x02, 0x06, 0x0c, 0x18, 0x30, 0x60, 0xc0, 0x80, 0x00, 0x00, 0x00, 0x00
   478 00000609 60C08000000000     
   479 00000610 00003C66C3C3DBDBC3-        db 0x00, 0x00, 0x3c, 0x66, 0xc3, 0xc3, 0xdb, 0xdb, 0xc3, 0xc3, 0x66, 0x3c, 0x00, 0x00, 0x00, 0x00
   479 00000619 C3663C00000000     
   480 00000620 000018387818181818-        db 0x00, 0x00, 0x18, 0x38, 0x78, 0x18, 0x18, 0x18, 0x18, 0x18, 0x18, 0x7e, 0x00, 0x00, 0x00, 0x00
   480 00000629 18187E00000000     
   481 00000630 00007CC6060C183060-        db 0x00, 0x00, 0x7c, 0xc6, 0x06, 0x0c, 0x18, 0x30, 0x60, 0xc0, 0xc6, 0xfe, 0x00, 0x00, 0x00, 0x00
   481 00000639 C0C6FE00000000     
   482 00000640 00007CC606063C0606-        db 0x00, 0x00, 0x7c, 0xc6, 0x06, 0x06, 0x3c, 0x06, 0x06, 0x06, 0xc6, 0x7c, 0x00, 0x00, 0x00, 0x00
   482 00000649 06C67C00000000     
   483 00000650 00000C1C3C6CCCFE0C-        db 0x00, 0x00, 0x0c, 0x1c, 0x3c, 0x6c, 0xcc, 0xfe, 0x0c, 0x0c, 0x0c, 0x1e, 0x00, 0x00, 0x00, 0x00
   483 00000659 0C0C1E00000000     
   484 00000660 0000FEC0C0C0FC0606-        db 0x00, 0x00, 0xfe, 0xc0, 0xc0, 0xc0, 0xfc, 0x06, 0x06, 0x06, 0xc6, 0x7c, 0x00, 0x00, 0x00, 0x00
   484 00000669 06C67C00000000     
   485 00000670 00003860C0C0FCC6C6-        db 0x00, 0x00, 0x38, 0x60, 0xc0, 0xc0, 0xfc, 0xc6, 0xc6, 0xc6, 0xc6, 0x7c, 0x00, 0x00, 0x00, 0x00
   485 00000679 C6C67C00000000     
   486 00000680 0000FEC606060C1830-        db 0x00, 0x00, 0xfe, 0xc6, 0x06, 0x06, 0x0c, 0x18, 0x30, 0x30, 0x30, 0x30, 0x00, 0x00, 0x00, 0x00
   486 00000689 30303000000000     
   487 00000690 00007CC6C6C67CC6C6-        db 0x00, 0x00, 0x7c, 0xc6, 0xc6, 0xc6, 0x7c, 0xc6, 0xc6, 0xc6, 0xc6, 0x7c, 0x00, 0x00, 0x00, 0x00
   487 00000699 C6C67C00000000     
   488 000006A0 00007CC6C6C67E0606-        db 0x00, 0x00, 0x7c, 0xc6, 0xc6, 0xc6, 0x7e, 0x06, 0x06, 0x06, 0x0c, 0x78, 0x00, 0x00, 0x00, 0x00
   488 000006A9 060C7800000000     
   489 000006B0 000000001818000000-        db 0x00, 0x00, 0x00, 0x00, 0x18, 0x18, 0x00, 0x00, 0x00, 0x18, 0x18, 0x00, 0x00, 0x00, 0x00, 0x00
   489 000006B9 18180000000000     
   490 000006C0 000000001818000000-        db 0x00, 0x00, 0x00, 0x00, 0x18, 0x18, 0x00, 0x00, 0x00, 0x18, 0x18, 0x30, 0x00, 0x00, 0x00, 0x00
   490 000006C9 18183000000000     
   491 000006D0 000000060C18306030-        db 0x00, 0x00, 0x00, 0x06, 0x0c, 0x18, 0x30, 0x60, 0x30, 0x18, 0x0c, 0x06, 0x00, 0x00, 0x00, 0x00
   491 000006D9 180C0600000000     
   492 000006E0 00000000007E00007E-        db 0x00, 0x00, 0x00, 0x00, 0x00, 0x7e, 0x00, 0x00, 0x7e, 0x00, 0x00, 0x00, 0x00, 0x00, 0x00, 0x00
   492 000006E9 00000000000000     
   493 000006F0 0000006030180C060C-        db 0x00, 0x00, 0x00, 0x60, 0x30, 0x18, 0x0c, 0x06, 0x0c, 0x18, 0x30, 0x60, 0x00, 0x00, 0x00, 0x00
   493 000006F9 18306000000000     
   494 00000700 00007CC6C60C181818-        db 0x00, 0x00, 0x7c, 0xc6, 0xc6, 0x0c, 0x18, 0x18, 0x18, 0x00, 0x18, 0x18, 0x00, 0x00, 0x00, 0x00
   494 00000709 00181800000000     
   495 00000710 0000007CC6C6DEDEDE-        db 0x00, 0x00, 0x00, 0x7c, 0xc6, 0xc6, 0xde, 0xde, 0xde, 0xdc, 0xc0, 0x7c, 0x00, 0x00, 0x00, 0x00
   495 00000719 DCC07C00000000     
   496 00000720 000010386CC6C6FEC6-        db 0x00, 0x00, 0x10, 0x38, 0x6c, 0xc6, 0xc6, 0xfe, 0xc6, 0xc6, 0xc6, 0xc6, 0x00, 0x00, 0x00, 0x00
   496 00000729 C6C6C600000000     
   497 00000730 0000FC6666667C6666-        db 0x00, 0x00, 0xfc, 0x66, 0x66, 0x66, 0x7c, 0x66, 0x66, 0x66, 0x66, 0xfc, 0x00, 0x00, 0x00, 0x00
   497 00000739 6666FC00000000     
   498 00000740 00003C66C2C0C0C0C0-        db 0x00, 0x00, 0x3c, 0x66, 0xc2, 0xc0, 0xc0, 0xc0, 0xc0, 0xc2, 0x66, 0x3c, 0x00, 0x00, 0x00, 0x00
   498 00000749 C2663C00000000     
   499 00000750 0000F86C6666666666-        db 0x00, 0x00, 0xf8, 0x6c, 0x66, 0x66, 0x66, 0x66, 0x66, 0x66, 0x6c, 0xf8, 0x00, 0x00, 0x00, 0x00
   499 00000759 666CF800000000     
   500 00000760 0000FE666268786860-        db 0x00, 0x00, 0xfe, 0x66, 0x62, 0x68, 0x78, 0x68, 0x60, 0x62, 0x66, 0xfe, 0x00, 0x00, 0x00, 0x00
   500 00000769 6266FE00000000     
   501 00000770 0000FE666268786860-        db 0x00, 0x00, 0xfe, 0x66, 0x62, 0x68, 0x78, 0x68, 0x60, 0x60, 0x60, 0xf0, 0x00, 0x00, 0x00, 0x00
   501 00000779 6060F000000000     
   502 00000780 00003C66C2C0C0DEC6-        db 0x00, 0x00, 0x3c, 0x66, 0xc2, 0xc0, 0xc0, 0xde, 0xc6, 0xc6, 0x66, 0x3a, 0x00, 0x00, 0x00, 0x00
   502 00000789 C6663A00000000     
   503 00000790 0000C6C6C6C6FEC6C6-        db 0x00, 0x00, 0xc6, 0xc6, 0xc6, 0xc6, 0xfe, 0xc6, 0xc6, 0xc6, 0xc6, 0xc6, 0x00, 0x00, 0x00, 0x00
   503 00000799 C6C6C600000000     
   504 000007A0 00003C181818181818-        db 0x00, 0x00, 0x3c, 0x18, 0x18, 0x18, 0x18, 0x18, 0x18, 0x18, 0x18, 0x3c, 0x00, 0x00, 0x00, 0x00
   504 000007A9 18183C00000000     
   505 000007B0 00001E0C0C0C0C0CCC-        db 0x00, 0x00, 0x1e, 0x0c, 0x0c, 0x0c, 0x0c, 0x0c, 0xcc, 0xcc, 0xcc, 0x78, 0x00, 0x00, 0x00, 0x00
   505 000007B9 CCCC7800000000     
   506 000007C0 0000E666666C78786C-        db 0x00, 0x00, 0xe6, 0x66, 0x66, 0x6c, 0x78, 0x78, 0x6c, 0x66, 0x66, 0xe6, 0x00, 0x00, 0x00, 0x00
   506 000007C9 6666E600000000     
   507 000007D0 0000F0606060606060-        db 0x00, 0x00, 0xf0, 0x60, 0x60, 0x60, 0x60, 0x60, 0x60, 0x62, 0x66, 0xfe, 0x00, 0x00, 0x00, 0x00
   507 000007D9 6266FE00000000     
   508 000007E0 0000C3E7FFFFDBC3C3-        db 0x00, 0x00, 0xc3, 0xe7, 0xff, 0xff, 0xdb, 0xc3, 0xc3, 0xc3, 0xc3, 0xc3, 0x00, 0x00, 0x00, 0x00
   508 000007E9 C3C3C300000000     
   509 000007F0 0000C6E6F6FEDECEC6-        db 0x00, 0x00, 0xc6, 0xe6, 0xf6, 0xfe, 0xde, 0xce, 0xc6, 0xc6, 0xc6, 0xc6, 0x00, 0x00, 0x00, 0x00
   509 000007F9 C6C6C600000000     
   510 00000800 00007CC6C6C6C6C6C6-        db 0x00, 0x00, 0x7c, 0xc6, 0xc6, 0xc6, 0xc6, 0xc6, 0xc6, 0xc6, 0xc6, 0x7c, 0x00, 0x00, 0x00, 0x00
   510 00000809 C6C67C00000000     
   511 00000810 0000FC6666667C6060-        db 0x00, 0x00, 0xfc, 0x66, 0x66, 0x66, 0x7c, 0x60, 0x60, 0x60, 0x60, 0xf0, 0x00, 0x00, 0x00, 0x00
   511 00000819 6060F000000000     
   512 00000820 00007CC6C6C6C6C6C6-        db 0x00, 0x00, 0x7c, 0xc6, 0xc6, 0xc6, 0xc6, 0xc6, 0xc6, 0xd6, 0xde, 0x7c, 0x0c, 0x0e, 0x00, 0x00
   512 00000829 D6DE7C0C0E0000     
   513 00000830 0000FC6666667C6C66-        db 0x00, 0x00, 0xfc, 0x66, 0x66, 0x66, 0x7c, 0x6c, 0x66, 0x66, 0x66, 0xe6, 0x00, 0x00, 0x00, 0x00
   513 00000839 6666E600000000     
   514 00000840 00007CC6C660380C06-        db 0x00, 0x00, 0x7c, 0xc6, 0xc6, 0x60, 0x38, 0x0c, 0x06, 0xc6, 0xc6, 0x7c, 0x00, 0x00, 0x00, 0x00
   514 00000849 C6C67C00000000     
   515 00000850 0000FFDB9918181818-        db 0x00, 0x00, 0xff, 0xdb, 0x99, 0x18, 0x18, 0x18, 0x18, 0x18, 0x18, 0x3c, 0x00, 0x00, 0x00, 0x00
   515 00000859 18183C00000000     
   516 00000860 0000C6C6C6C6C6C6C6-        db 0x00, 0x00, 0xc6, 0xc6, 0xc6, 0xc6, 0xc6, 0xc6, 0xc6, 0xc6, 0xc6, 0x7c, 0x00, 0x00, 0x00, 0x00
   516 00000869 C6C67C00000000     
   517 00000870 0000C3C3C3C3C3C3C3-        db 0x00, 0x00, 0xc3, 0xc3, 0xc3, 0xc3, 0xc3, 0xc3, 0xc3, 0x66, 0x3c, 0x18, 0x00, 0x00, 0x00, 0x00
   517 00000879 663C1800000000     
   518 00000880 0000C3C3C3C3C3DBDB-        db 0x00, 0x00, 0xc3, 0xc3, 0xc3, 0xc3, 0xc3, 0xdb, 0xdb, 0xff, 0x66, 0x66, 0x00, 0x00, 0x00, 0x00
   518 00000889 FF666600000000     
   519 00000890 0000C3C3663C18183C-        db 0x00, 0x00, 0xc3, 0xc3, 0x66, 0x3c, 0x18, 0x18, 0x3c, 0x66, 0xc3, 0xc3, 0x00, 0x00, 0x00, 0x00
   519 00000899 66C3C300000000     
   520 000008A0 0000C3C3C3663C1818-        db 0x00, 0x00, 0xc3, 0xc3, 0xc3, 0x66, 0x3c, 0x18, 0x18, 0x18, 0x18, 0x3c, 0x00, 0x00, 0x00, 0x00
   520 000008A9 18183C00000000     
   521 000008B0 0000FFC3860C183060-        db 0x00, 0x00, 0xff, 0xc3, 0x86, 0x0c, 0x18, 0x30, 0x60, 0xc1, 0xc3, 0xff, 0x00, 0x00, 0x00, 0x00
   521 000008B9 C1C3FF00000000     
   522 000008C0 00003C303030303030-        db 0x00, 0x00, 0x3c, 0x30, 0x30, 0x30, 0x30, 0x30, 0x30, 0x30, 0x30, 0x3c, 0x00, 0x00, 0x00, 0x00
   522 000008C9 30303C00000000     
   523 000008D0 00000080C0E070381C-        db 0x00, 0x00, 0x00, 0x80, 0xc0, 0xe0, 0x70, 0x38, 0x1c, 0x0e, 0x06, 0x02, 0x00, 0x00, 0x00, 0x00
   523 000008D9 0E060200000000     
   524 000008E0 00003C0C0C0C0C0C0C-        db 0x00, 0x00, 0x3c, 0x0c, 0x0c, 0x0c, 0x0c, 0x0c, 0x0c, 0x0c, 0x0c, 0x3c, 0x00, 0x00, 0x00, 0x00
   524 000008E9 0C0C3C00000000     
   525 000008F0 10386CC60000000000-        db 0x10, 0x38, 0x6c, 0xc6, 0x00, 0x00, 0x00, 0x00, 0x00, 0x00, 0x00, 0x00, 0x00, 0x00, 0x00, 0x00
   525 000008F9 00000000000000     
   526 00000900 000000000000000000-        db 0x00, 0x00, 0x00, 0x00, 0x00, 0x00, 0x00, 0x00, 0x00, 0x00, 0x00, 0x00, 0x00, 0xff, 0x00, 0x00
   526 00000909 00000000FF0000     
   527 00000910 303018000000000000-        db 0x30, 0x30, 0x18, 0x00, 0x00, 0x00, 0x00, 0x00, 0x00, 0x00, 0x00, 0x00, 0x00, 0x00, 0x00, 0x00
   527 00000919 00000000000000     
   528 00000920 0000000000780C7CCC-        db 0x00, 0x00, 0x00, 0x00, 0x00, 0x78, 0x0c, 0x7c, 0xcc, 0xcc, 0xcc, 0x76, 0x00, 0x00, 0x00, 0x00
   528 00000929 CCCC7600000000     
   529 00000930 0000E06060786C6666-        db 0x00, 0x00, 0xe0, 0x60, 0x60, 0x78, 0x6c, 0x66, 0x66, 0x66, 0x66, 0x7c, 0x00, 0x00, 0x00, 0x00
   529 00000939 66667C00000000     
   530 00000940 00000000007CC6C0C0-        db 0x00, 0x00, 0x00, 0x00, 0x00, 0x7c, 0xc6, 0xc0, 0xc0, 0xc0, 0xc6, 0x7c, 0x00, 0x00, 0x00, 0x00
   530 00000949 C0C67C00000000     
   531 00000950 00001C0C0C3C6CCCCC-        db 0x00, 0x00, 0x1c, 0x0c, 0x0c, 0x3c, 0x6c, 0xcc, 0xcc, 0xcc, 0xcc, 0x76, 0x00, 0x00, 0x00, 0x00
   531 00000959 CCCC7600000000     
   532 00000960 00000000007CC6FEC0-        db 0x00, 0x00, 0x00, 0x00, 0x00, 0x7c, 0xc6, 0xfe, 0xc0, 0xc0, 0xc6, 0x7c, 0x00, 0x00, 0x00, 0x00
   532 00000969 C0C67C00000000     
   533 00000970 0000386C6460F06060-        db 0x00, 0x00, 0x38, 0x6c, 0x64, 0x60, 0xf0, 0x60, 0x60, 0x60, 0x60, 0xf0, 0x00, 0x00, 0x00, 0x00
   533 00000979 6060F000000000     
   534 00000980 000000000076CCCCCC-        db 0x00, 0x00, 0x00, 0x00, 0x00, 0x76, 0xcc, 0xcc, 0xcc, 0xcc, 0xcc, 0x7c, 0x0c, 0xcc, 0x78, 0x00
   534 00000989 CCCC7C0CCC7800     
   535 00000990 0000E060606C766666-        db 0x00, 0x00, 0xe0, 0x60, 0x60, 0x6c, 0x76, 0x66, 0x66, 0x66, 0x66, 0xe6, 0x00, 0x00, 0x00, 0x00
   535 00000999 6666E600000000     
   536 000009A0 000018180038181818-        db 0x00, 0x00, 0x18, 0x18, 0x00, 0x38, 0x18, 0x18, 0x18, 0x18, 0x18, 0x3c, 0x00, 0x00, 0x00, 0x00
   536 000009A9 18183C00000000     
   537 000009B0 00000606000E060606-        db 0x00, 0x00, 0x06, 0x06, 0x00, 0x0e, 0x06, 0x06, 0x06, 0x06, 0x06, 0x06, 0x66, 0x66, 0x3c, 0x00
   537 000009B9 06060666663C00     
   538 000009C0 0000E06060666C7878-        db 0x00, 0x00, 0xe0, 0x60, 0x60, 0x66, 0x6c, 0x78, 0x78, 0x6c, 0x66, 0xe6, 0x00, 0x00, 0x00, 0x00
   538 000009C9 6C66E600000000     
   539 000009D0 000038181818181818-        db 0x00, 0x00, 0x38, 0x18, 0x18, 0x18, 0x18, 0x18, 0x18, 0x18, 0x18, 0x3c, 0x00, 0x00, 0x00, 0x00
   539 000009D9 18183C00000000     
   540 000009E0 0000000000E6FFDBDB-        db 0x00, 0x00, 0x00, 0x00, 0x00, 0xe6, 0xff, 0xdb, 0xdb, 0xdb, 0xdb, 0xdb, 0x00, 0x00, 0x00, 0x00
   540 000009E9 DBDBDB00000000     
   541 000009F0 0000000000DC666666-        db 0x00, 0x00, 0x00, 0x00, 0x00, 0xdc, 0x66, 0x66, 0x66, 0x66, 0x66, 0x66, 0x00, 0x00, 0x00, 0x00
   541 000009F9 66666600000000     
   542 00000A00 00000000007CC6C6C6-        db 0x00, 0x00, 0x00, 0x00, 0x00, 0x7c, 0xc6, 0xc6, 0xc6, 0xc6, 0xc6, 0x7c, 0x00, 0x00, 0x00, 0x00
   542 00000A09 C6C67C00000000     
   543 00000A10 0000000000DC666666-        db 0x00, 0x00, 0x00, 0x00, 0x00, 0xdc, 0x66, 0x66, 0x66, 0x66, 0x66, 0x7c, 0x60, 0x60, 0xf0, 0x00
   543 00000A19 66667C6060F000     
   544 00000A20 000000000076CCCCCC-        db 0x00, 0x00, 0x00, 0x00, 0x00, 0x76, 0xcc, 0xcc, 0xcc, 0xcc, 0xcc, 0x7c, 0x0c, 0x0c, 0x1e, 0x00
   544 00000A29 CCCC7C0C0C1E00     
   545 00000A30 0000000000DC766660-        db 0x00, 0x00, 0x00, 0x00, 0x00, 0xdc, 0x76, 0x66, 0x60, 0x60, 0x60, 0xf0, 0x00, 0x00, 0x00, 0x00
   545 00000A39 6060F000000000     
   546 00000A40 00000000007CC66038-        db 0x00, 0x00, 0x00, 0x00, 0x00, 0x7c, 0xc6, 0x60, 0x38, 0x0c, 0xc6, 0x7c, 0x00, 0x00, 0x00, 0x00
   546 00000A49 0CC67C00000000     
   547 00000A50 0000103030FC303030-        db 0x00, 0x00, 0x10, 0x30, 0x30, 0xfc, 0x30, 0x30, 0x30, 0x30, 0x36, 0x1c, 0x00, 0x00, 0x00, 0x00
   547 00000A59 30361C00000000     
   548 00000A60 0000000000CCCCCCCC-        db 0x00, 0x00, 0x00, 0x00, 0x00, 0xcc, 0xcc, 0xcc, 0xcc, 0xcc, 0xcc, 0x76, 0x00, 0x00, 0x00, 0x00
   548 00000A69 CCCC7600000000     
   549 00000A70 0000000000C3C3C3C3-        db 0x00, 0x00, 0x00, 0x00, 0x00, 0xc3, 0xc3, 0xc3, 0xc3, 0x66, 0x3c, 0x18, 0x00, 0x00, 0x00, 0x00
   549 00000A79 663C1800000000     
   550 00000A80 0000000000C3C3C3DB-        db 0x00, 0x00, 0x00, 0x00, 0x00, 0xc3, 0xc3, 0xc3, 0xdb, 0xdb, 0xff, 0x66, 0x00, 0x00, 0x00, 0x00
   550 00000A89 DBFF6600000000     
   551 00000A90 0000000000C3663C18-        db 0x00, 0x00, 0x00, 0x00, 0x00, 0xc3, 0x66, 0x3c, 0x18, 0x3c, 0x66, 0xc3, 0x00, 0x00, 0x00, 0x00
   551 00000A99 3C66C300000000     
   552 00000AA0 0000000000C6C6C6C6-        db 0x00, 0x00, 0x00, 0x00, 0x00, 0xc6, 0xc6, 0xc6, 0xc6, 0xc6, 0xc6, 0x7e, 0x06, 0x0c, 0xf8, 0x00
   552 00000AA9 C6C67E060CF800     
   553 00000AB0 0000000000FECC1830-        db 0x00, 0x00, 0x00, 0x00, 0x00, 0xfe, 0xcc, 0x18, 0x30, 0x60, 0xc6, 0xfe, 0x00, 0x00, 0x00, 0x00
   553 00000AB9 60C6FE00000000     
   554 00000AC0 00000E181818701818-        db 0x00, 0x00, 0x0e, 0x18, 0x18, 0x18, 0x70, 0x18, 0x18, 0x18, 0x18, 0x0e, 0x00, 0x00, 0x00, 0x00
   554 00000AC9 18180E00000000     
   555 00000AD0 000018181818001818-        db 0x00, 0x00, 0x18, 0x18, 0x18, 0x18, 0x00, 0x18, 0x18, 0x18, 0x18, 0x18, 0x00, 0x00, 0x00, 0x00
   555 00000AD9 18181800000000     
   556 00000AE0 0000701818180E1818-        db 0x00, 0x00, 0x70, 0x18, 0x18, 0x18, 0x0e, 0x18, 0x18, 0x18, 0x18, 0x70, 0x00, 0x00, 0x00, 0x00
   556 00000AE9 18187000000000     
   557 00000AF0 000076DC0000000000-        db 0x00, 0x00, 0x76, 0xdc, 0x00, 0x00, 0x00, 0x00, 0x00, 0x00, 0x00, 0x00, 0x00, 0x00, 0x00, 0x00
   557 00000AF9 00000000000000     
   558 00000B00 0000000010386CC6C6-        db 0x00, 0x00, 0x00, 0x00, 0x10, 0x38, 0x6c, 0xc6, 0xc6, 0xc6, 0xfe, 0x00, 0x00, 0x00, 0x00, 0x00
   558 00000B09 C6FE0000000000     
   559 00000B10 00003C66C2C0C0C0C2-        db 0x00, 0x00, 0x3c, 0x66, 0xc2, 0xc0, 0xc0, 0xc0, 0xc2, 0x66, 0x3c, 0x0c, 0x06, 0x7c, 0x00, 0x00
   559 00000B19 663C0C067C0000     
   560 00000B20 0000CC0000CCCCCCCC-        db 0x00, 0x00, 0xcc, 0x00, 0x00, 0xcc, 0xcc, 0xcc, 0xcc, 0xcc, 0xcc, 0x76, 0x00, 0x00, 0x00, 0x00
   560 00000B29 CCCC7600000000     
   561 00000B30 000C1830007CC6FEC0-        db 0x00, 0x0c, 0x18, 0x30, 0x00, 0x7c, 0xc6, 0xfe, 0xc0, 0xc0, 0xc6, 0x7c, 0x00, 0x00, 0x00, 0x00
   561 00000B39 C0C67C00000000     
   562 00000B40 0010386C00780C7CCC-        db 0x00, 0x10, 0x38, 0x6c, 0x00, 0x78, 0x0c, 0x7c, 0xcc, 0xcc, 0xcc, 0x76, 0x00, 0x00, 0x00, 0x00
   562 00000B49 CCCC7600000000     
   563 00000B50 0000CC0000780C7CCC-        db 0x00, 0x00, 0xcc, 0x00, 0x00, 0x78, 0x0c, 0x7c, 0xcc, 0xcc, 0xcc, 0x76, 0x00, 0x00, 0x00, 0x00
   563 00000B59 CCCC7600000000     
   564 00000B60 0060301800780C7CCC-        db 0x00, 0x60, 0x30, 0x18, 0x00, 0x78, 0x0c, 0x7c, 0xcc, 0xcc, 0xcc, 0x76, 0x00, 0x00, 0x00, 0x00
   564 00000B69 CCCC7600000000     
   565 00000B70 00386C3800780C7CCC-        db 0x00, 0x38, 0x6c, 0x38, 0x00, 0x78, 0x0c, 0x7c, 0xcc, 0xcc, 0xcc, 0x76, 0x00, 0x00, 0x00, 0x00
   565 00000B79 CCCC7600000000     
   566 00000B80 000000003C66606066-        db 0x00, 0x00, 0x00, 0x00, 0x3c, 0x66, 0x60, 0x60, 0x66, 0x3c, 0x0c, 0x06, 0x3c, 0x00, 0x00, 0x00
   566 00000B89 3C0C063C000000     
   567 00000B90 0010386C007CC6FEC0-        db 0x00, 0x10, 0x38, 0x6c, 0x00, 0x7c, 0xc6, 0xfe, 0xc0, 0xc0, 0xc6, 0x7c, 0x00, 0x00, 0x00, 0x00
   567 00000B99 C0C67C00000000     
   568 00000BA0 0000C600007CC6FEC0-        db 0x00, 0x00, 0xc6, 0x00, 0x00, 0x7c, 0xc6, 0xfe, 0xc0, 0xc0, 0xc6, 0x7c, 0x00, 0x00, 0x00, 0x00
   568 00000BA9 C0C67C00000000     
   569 00000BB0 00603018007CC6FEC0-        db 0x00, 0x60, 0x30, 0x18, 0x00, 0x7c, 0xc6, 0xfe, 0xc0, 0xc0, 0xc6, 0x7c, 0x00, 0x00, 0x00, 0x00
   569 00000BB9 C0C67C00000000     
   570 00000BC0 000066000038181818-        db 0x00, 0x00, 0x66, 0x00, 0x00, 0x38, 0x18, 0x18, 0x18, 0x18, 0x18, 0x3c, 0x00, 0x00, 0x00, 0x00
   570 00000BC9 18183C00000000     
   571 00000BD0 00183C660038181818-        db 0x00, 0x18, 0x3c, 0x66, 0x00, 0x38, 0x18, 0x18, 0x18, 0x18, 0x18, 0x3c, 0x00, 0x00, 0x00, 0x00
   571 00000BD9 18183C00000000     
   572 00000BE0 006030180038181818-        db 0x00, 0x60, 0x30, 0x18, 0x00, 0x38, 0x18, 0x18, 0x18, 0x18, 0x18, 0x3c, 0x00, 0x00, 0x00, 0x00
   572 00000BE9 18183C00000000     
   573 00000BF0 00C60010386CC6C6FE-        db 0x00, 0xc6, 0x00, 0x10, 0x38, 0x6c, 0xc6, 0xc6, 0xfe, 0xc6, 0xc6, 0xc6, 0x00, 0x00, 0x00, 0x00
   573 00000BF9 C6C6C600000000     
   574 00000C00 386C3800386CC6C6FE-        db 0x38, 0x6c, 0x38, 0x00, 0x38, 0x6c, 0xc6, 0xc6, 0xfe, 0xc6, 0xc6, 0xc6, 0x00, 0x00, 0x00, 0x00
   574 00000C09 C6C6C600000000     
   575 00000C10 18306000FE66607C60-        db 0x18, 0x30, 0x60, 0x00, 0xfe, 0x66, 0x60, 0x7c, 0x60, 0x60, 0x66, 0xfe, 0x00, 0x00, 0x00, 0x00
   575 00000C19 6066FE00000000     
   576 00000C20 00000000006E3B1B7E-        db 0x00, 0x00, 0x00, 0x00, 0x00, 0x6e, 0x3b, 0x1b, 0x7e, 0xd8, 0xdc, 0x77, 0x00, 0x00, 0x00, 0x00
   576 00000C29 D8DC7700000000     
   577 00000C30 00003E6CCCCCFECCCC-        db 0x00, 0x00, 0x3e, 0x6c, 0xcc, 0xcc, 0xfe, 0xcc, 0xcc, 0xcc, 0xcc, 0xce, 0x00, 0x00, 0x00, 0x00
   577 00000C39 CCCCCE00000000     
   578 00000C40 0010386C007CC6C6C6-        db 0x00, 0x10, 0x38, 0x6c, 0x00, 0x7c, 0xc6, 0xc6, 0xc6, 0xc6, 0xc6, 0x7c, 0x00, 0x00, 0x00, 0x00
   578 00000C49 C6C67C00000000     
   579 00000C50 0000C600007CC6C6C6-        db 0x00, 0x00, 0xc6, 0x00, 0x00, 0x7c, 0xc6, 0xc6, 0xc6, 0xc6, 0xc6, 0x7c, 0x00, 0x00, 0x00, 0x00
   579 00000C59 C6C67C00000000     
   580 00000C60 00603018007CC6C6C6-        db 0x00, 0x60, 0x30, 0x18, 0x00, 0x7c, 0xc6, 0xc6, 0xc6, 0xc6, 0xc6, 0x7c, 0x00, 0x00, 0x00, 0x00
   580 00000C69 C6C67C00000000     
   581 00000C70 003078CC00CCCCCCCC-        db 0x00, 0x30, 0x78, 0xcc, 0x00, 0xcc, 0xcc, 0xcc, 0xcc, 0xcc, 0xcc, 0x76, 0x00, 0x00, 0x00, 0x00
   581 00000C79 CCCC7600000000     
   582 00000C80 0060301800CCCCCCCC-        db 0x00, 0x60, 0x30, 0x18, 0x00, 0xcc, 0xcc, 0xcc, 0xcc, 0xcc, 0xcc, 0x76, 0x00, 0x00, 0x00, 0x00
   582 00000C89 CCCC7600000000     
   583 00000C90 0000C60000C6C6C6C6-        db 0x00, 0x00, 0xc6, 0x00, 0x00, 0xc6, 0xc6, 0xc6, 0xc6, 0xc6, 0xc6, 0x7e, 0x06, 0x0c, 0x78, 0x00
   583 00000C99 C6C67E060C7800     
   584 00000CA0 00C6007CC6C6C6C6C6-        db 0x00, 0xc6, 0x00, 0x7c, 0xc6, 0xc6, 0xc6, 0xc6, 0xc6, 0xc6, 0xc6, 0x7c, 0x00, 0x00, 0x00, 0x00
   584 00000CA9 C6C67C00000000     
   585 00000CB0 00C600C6C6C6C6C6C6-        db 0x00, 0xc6, 0x00, 0xc6, 0xc6, 0xc6, 0xc6, 0xc6, 0xc6, 0xc6, 0xc6, 0x7c, 0x00, 0x00, 0x00, 0x00
   585 00000CB9 C6C67C00000000     
   586 00000CC0 0018187EC3C0C0C0C3-        db 0x00, 0x18, 0x18, 0x7e, 0xc3, 0xc0, 0xc0, 0xc0, 0xc3, 0x7e, 0x18, 0x18, 0x00, 0x00, 0x00, 0x00
   586 00000CC9 7E181800000000     
   587 00000CD0 00386C6460F0606060-        db 0x00, 0x38, 0x6c, 0x64, 0x60, 0xf0, 0x60, 0x60, 0x60, 0x60, 0xe6, 0xfc, 0x00, 0x00, 0x00, 0x00
   587 00000CD9 60E6FC00000000     
   588 00000CE0 0000C3663C18FF18FF-        db 0x00, 0x00, 0xc3, 0x66, 0x3c, 0x18, 0xff, 0x18, 0xff, 0x18, 0x18, 0x18, 0x00, 0x00, 0x00, 0x00
   588 00000CE9 18181800000000     
   589 00000CF0 00FC66667C62666F66-        db 0x00, 0xfc, 0x66, 0x66, 0x7c, 0x62, 0x66, 0x6f, 0x66, 0x66, 0x66, 0xf3, 0x00, 0x00, 0x00, 0x00
   589 00000CF9 6666F300000000     
   590 00000D00 000E1B1818187E1818-        db 0x00, 0x0e, 0x1b, 0x18, 0x18, 0x18, 0x7e, 0x18, 0x18, 0x18, 0x18, 0x18, 0xd8, 0x70, 0x00, 0x00
   590 00000D09 181818D8700000     
   591 00000D10 0018306000780C7CCC-        db 0x00, 0x18, 0x30, 0x60, 0x00, 0x78, 0x0c, 0x7c, 0xcc, 0xcc, 0xcc, 0x76, 0x00, 0x00, 0x00, 0x00
   591 00000D19 CCCC7600000000     
   592 00000D20 000C18300038181818-        db 0x00, 0x0c, 0x18, 0x30, 0x00, 0x38, 0x18, 0x18, 0x18, 0x18, 0x18, 0x3c, 0x00, 0x00, 0x00, 0x00
   592 00000D29 18183C00000000     
   593 00000D30 00183060007CC6C6C6-        db 0x00, 0x18, 0x30, 0x60, 0x00, 0x7c, 0xc6, 0xc6, 0xc6, 0xc6, 0xc6, 0x7c, 0x00, 0x00, 0x00, 0x00
   593 00000D39 C6C67C00000000     
   594 00000D40 0018306000CCCCCCCC-        db 0x00, 0x18, 0x30, 0x60, 0x00, 0xcc, 0xcc, 0xcc, 0xcc, 0xcc, 0xcc, 0x76, 0x00, 0x00, 0x00, 0x00
   594 00000D49 CCCC7600000000     
   595 00000D50 000076DC00DC666666-        db 0x00, 0x00, 0x76, 0xdc, 0x00, 0xdc, 0x66, 0x66, 0x66, 0x66, 0x66, 0x66, 0x00, 0x00, 0x00, 0x00
   595 00000D59 66666600000000     
   596 00000D60 76DC00C6E6F6FEDECE-        db 0x76, 0xdc, 0x00, 0xc6, 0xe6, 0xf6, 0xfe, 0xde, 0xce, 0xc6, 0xc6, 0xc6, 0x00, 0x00, 0x00, 0x00
   596 00000D69 C6C6C600000000     
   597 00000D70 003C6C6C3E007E0000-        db 0x00, 0x3c, 0x6c, 0x6c, 0x3e, 0x00, 0x7e, 0x00, 0x00, 0x00, 0x00, 0x00, 0x00, 0x00, 0x00, 0x00
   597 00000D79 00000000000000     
   598 00000D80 00386C6C38007C0000-        db 0x00, 0x38, 0x6c, 0x6c, 0x38, 0x00, 0x7c, 0x00, 0x00, 0x00, 0x00, 0x00, 0x00, 0x00, 0x00, 0x00
   598 00000D89 00000000000000     
   599 00000D90 0000303000303060C0-        db 0x00, 0x00, 0x30, 0x30, 0x00, 0x30, 0x30, 0x60, 0xc0, 0xc6, 0xc6, 0x7c, 0x00, 0x00, 0x00, 0x00
   599 00000D99 C6C67C00000000     
   600 00000DA0 000000000000FEC0C0-        db 0x00, 0x00, 0x00, 0x00, 0x00, 0x00, 0xfe, 0xc0, 0xc0, 0xc0, 0xc0, 0x00, 0x00, 0x00, 0x00, 0x00
   600 00000DA9 C0C00000000000     
   601 00000DB0 000000000000FE0606-        db 0x00, 0x00, 0x00, 0x00, 0x00, 0x00, 0xfe, 0x06, 0x06, 0x06, 0x06, 0x00, 0x00, 0x00, 0x00, 0x00
   601 00000DB9 06060000000000     
   602 00000DC0 00C0C0C2C6CC183060-        db 0x00, 0xc0, 0xc0, 0xc2, 0xc6, 0xcc, 0x18, 0x30, 0x60, 0xce, 0x9b, 0x06, 0x0c, 0x1f, 0x00, 0x00
   602 00000DC9 CE9B060C1F0000     
   603 00000DD0 00C0C0C2C6CC183066-        db 0x00, 0xc0, 0xc0, 0xc2, 0xc6, 0xcc, 0x18, 0x30, 0x66, 0xce, 0x96, 0x3e, 0x06, 0x06, 0x00, 0x00
   603 00000DD9 CE963E06060000     
   604 00000DE0 00001818001818183C-        db 0x00, 0x00, 0x18, 0x18, 0x00, 0x18, 0x18, 0x18, 0x3c, 0x3c, 0x3c, 0x18, 0x00, 0x00, 0x00, 0x00
   604 00000DE9 3C3C1800000000     
   605 00000DF0 0000000000366CD86C-        db 0x00, 0x00, 0x00, 0x00, 0x00, 0x36, 0x6c, 0xd8, 0x6c, 0x36, 0x00, 0x00, 0x00, 0x00, 0x00, 0x00
   605 00000DF9 36000000000000     
   606 00000E00 0000000000D86C366C-        db 0x00, 0x00, 0x00, 0x00, 0x00, 0xd8, 0x6c, 0x36, 0x6c, 0xd8, 0x00, 0x00, 0x00, 0x00, 0x00, 0x00
   606 00000E09 D8000000000000     
   607 00000E10 114411441144114411-        db 0x11, 0x44, 0x11, 0x44, 0x11, 0x44, 0x11, 0x44, 0x11, 0x44, 0x11, 0x44, 0x11, 0x44, 0x11, 0x44
   607 00000E19 44114411441144     
   608 00000E20 55AA55AA55AA55AA55-        db 0x55, 0xaa, 0x55, 0xaa, 0x55, 0xaa, 0x55, 0xaa, 0x55, 0xaa, 0x55, 0xaa, 0x55, 0xaa, 0x55, 0xaa
   608 00000E29 AA55AA55AA55AA     
   609 00000E30 DD77DD77DD77DD77DD-        db 0xdd, 0x77, 0xdd, 0x77, 0xdd, 0x77, 0xdd, 0x77, 0xdd, 0x77, 0xdd, 0x77, 0xdd, 0x77, 0xdd, 0x77
   609 00000E39 77DD77DD77DD77     
   610 00000E40 181818181818181818-        db 0x18, 0x18, 0x18, 0x18, 0x18, 0x18, 0x18, 0x18, 0x18, 0x18, 0x18, 0x18, 0x18, 0x18, 0x18, 0x18
   610 00000E49 18181818181818     
   611 00000E50 18181818181818F818-        db 0x18, 0x18, 0x18, 0x18, 0x18, 0x18, 0x18, 0xf8, 0x18, 0x18, 0x18, 0x18, 0x18, 0x18, 0x18, 0x18
   611 00000E59 18181818181818     
   612 00000E60 1818181818F818F818-        db 0x18, 0x18, 0x18, 0x18, 0x18, 0xf8, 0x18, 0xf8, 0x18, 0x18, 0x18, 0x18, 0x18, 0x18, 0x18, 0x18
   612 00000E69 18181818181818     
   613 00000E70 36363636363636F636-        db 0x36, 0x36, 0x36, 0x36, 0x36, 0x36, 0x36, 0xf6, 0x36, 0x36, 0x36, 0x36, 0x36, 0x36, 0x36, 0x36
   613 00000E79 36363636363636     
   614 00000E80 00000000000000FE36-        db 0x00, 0x00, 0x00, 0x00, 0x00, 0x00, 0x00, 0xfe, 0x36, 0x36, 0x36, 0x36, 0x36, 0x36, 0x36, 0x36
   614 00000E89 36363636363636     
   615 00000E90 0000000000F818F818-        db 0x00, 0x00, 0x00, 0x00, 0x00, 0xf8, 0x18, 0xf8, 0x18, 0x18, 0x18, 0x18, 0x18, 0x18, 0x18, 0x18
   615 00000E99 18181818181818     
   616 00000EA0 3636363636F606F636-        db 0x36, 0x36, 0x36, 0x36, 0x36, 0xf6, 0x06, 0xf6, 0x36, 0x36, 0x36, 0x36, 0x36, 0x36, 0x36, 0x36
   616 00000EA9 36363636363636     
   617 00000EB0 363636363636363636-        db 0x36, 0x36, 0x36, 0x36, 0x36, 0x36, 0x36, 0x36, 0x36, 0x36, 0x36, 0x36, 0x36, 0x36, 0x36, 0x36
   617 00000EB9 36363636363636     
   618 00000EC0 0000000000FE06F636-        db 0x00, 0x00, 0x00, 0x00, 0x00, 0xfe, 0x06, 0xf6, 0x36, 0x36, 0x36, 0x36, 0x36, 0x36, 0x36, 0x36
   618 00000EC9 36363636363636     
   619 00000ED0 3636363636F606FE00-        db 0x36, 0x36, 0x36, 0x36, 0x36, 0xf6, 0x06, 0xfe, 0x00, 0x00, 0x00, 0x00, 0x00, 0x00, 0x00, 0x00
   619 00000ED9 00000000000000     
   620 00000EE0 36363636363636FE00-        db 0x36, 0x36, 0x36, 0x36, 0x36, 0x36, 0x36, 0xfe, 0x00, 0x00, 0x00, 0x00, 0x00, 0x00, 0x00, 0x00
   620 00000EE9 00000000000000     
   621 00000EF0 1818181818F818F800-        db 0x18, 0x18, 0x18, 0x18, 0x18, 0xf8, 0x18, 0xf8, 0x00, 0x00, 0x00, 0x00, 0x00, 0x00, 0x00, 0x00
   621 00000EF9 00000000000000     
   622 00000F00 00000000000000F818-        db 0x00, 0x00, 0x00, 0x00, 0x00, 0x00, 0x00, 0xf8, 0x18, 0x18, 0x18, 0x18, 0x18, 0x18, 0x18, 0x18
   622 00000F09 18181818181818     
   623 00000F10 181818181818181F00-        db 0x18, 0x18, 0x18, 0x18, 0x18, 0x18, 0x18, 0x1f, 0x00, 0x00, 0x00, 0x00, 0x00, 0x00, 0x00, 0x00
   623 00000F19 00000000000000     
   624 00000F20 18181818181818FF00-        db 0x18, 0x18, 0x18, 0x18, 0x18, 0x18, 0x18, 0xff, 0x00, 0x00, 0x00, 0x00, 0x00, 0x00, 0x00, 0x00
   624 00000F29 00000000000000     
   625 00000F30 00000000000000FF18-        db 0x00, 0x00, 0x00, 0x00, 0x00, 0x00, 0x00, 0xff, 0x18, 0x18, 0x18, 0x18, 0x18, 0x18, 0x18, 0x18
   625 00000F39 18181818181818     
   626 00000F40 181818181818181F18-        db 0x18, 0x18, 0x18, 0x18, 0x18, 0x18, 0x18, 0x1f, 0x18, 0x18, 0x18, 0x18, 0x18, 0x18, 0x18, 0x18
   626 00000F49 18181818181818     
   627 00000F50 00000000000000FF00-        db 0x00, 0x00, 0x00, 0x00, 0x00, 0x00, 0x00, 0xff, 0x00, 0x00, 0x00, 0x00, 0x00, 0x00, 0x00, 0x00
   627 00000F59 00000000000000     
   628 00000F60 18181818181818FF18-        db 0x18, 0x18, 0x18, 0x18, 0x18, 0x18, 0x18, 0xff, 0x18, 0x18, 0x18, 0x18, 0x18, 0x18, 0x18, 0x18
   628 00000F69 18181818181818     
   629 00000F70 18181818181F181F18-        db 0x18, 0x18, 0x18, 0x18, 0x18, 0x1f, 0x18, 0x1f, 0x18, 0x18, 0x18, 0x18, 0x18, 0x18, 0x18, 0x18
   629 00000F79 18181818181818     
   630 00000F80 363636363636363736-        db 0x36, 0x36, 0x36, 0x36, 0x36, 0x36, 0x36, 0x37, 0x36, 0x36, 0x36, 0x36, 0x36, 0x36, 0x36, 0x36
   630 00000F89 36363636363636     
   631 00000F90 363636363637303F00-        db 0x36, 0x36, 0x36, 0x36, 0x36, 0x37, 0x30, 0x3f, 0x00, 0x00, 0x00, 0x00, 0x00, 0x00, 0x00, 0x00
   631 00000F99 00000000000000     
   632 00000FA0 00000000003F303736-        db 0x00, 0x00, 0x00, 0x00, 0x00, 0x3f, 0x30, 0x37, 0x36, 0x36, 0x36, 0x36, 0x36, 0x36, 0x36, 0x36
   632 00000FA9 36363636363636     
   633 00000FB0 3636363636F700FF00-        db 0x36, 0x36, 0x36, 0x36, 0x36, 0xf7, 0x00, 0xff, 0x00, 0x00, 0x00, 0x00, 0x00, 0x00, 0x00, 0x00
   633 00000FB9 00000000000000     
   634 00000FC0 0000000000FF00F736-        db 0x00, 0x00, 0x00, 0x00, 0x00, 0xff, 0x00, 0xf7, 0x36, 0x36, 0x36, 0x36, 0x36, 0x36, 0x36, 0x36
   634 00000FC9 36363636363636     
   635 00000FD0 363636363637303736-        db 0x36, 0x36, 0x36, 0x36, 0x36, 0x37, 0x30, 0x37, 0x36, 0x36, 0x36, 0x36, 0x36, 0x36, 0x36, 0x36
   635 00000FD9 36363636363636     
   636 00000FE0 0000000000FF00FF00-        db 0x00, 0x00, 0x00, 0x00, 0x00, 0xff, 0x00, 0xff, 0x00, 0x00, 0x00, 0x00, 0x00, 0x00, 0x00, 0x00
   636 00000FE9 00000000000000     
   637 00000FF0 3636363636F700F736-        db 0x36, 0x36, 0x36, 0x36, 0x36, 0xf7, 0x00, 0xf7, 0x36, 0x36, 0x36, 0x36, 0x36, 0x36, 0x36, 0x36
   637 00000FF9 36363636363636     
   638 00001000 1818181818FF00FF00-        db 0x18, 0x18, 0x18, 0x18, 0x18, 0xff, 0x00, 0xff, 0x00, 0x00, 0x00, 0x00, 0x00, 0x00, 0x00, 0x00
   638 00001009 00000000000000     
   639 00001010 36363636363636FF00-        db 0x36, 0x36, 0x36, 0x36, 0x36, 0x36, 0x36, 0xff, 0x00, 0x00, 0x00, 0x00, 0x00, 0x00, 0x00, 0x00
   639 00001019 00000000000000     
   640 00001020 0000000000FF00FF18-        db 0x00, 0x00, 0x00, 0x00, 0x00, 0xff, 0x00, 0xff, 0x18, 0x18, 0x18, 0x18, 0x18, 0x18, 0x18, 0x18
   640 00001029 18181818181818     
   641 00001030 00000000000000FF36-        db 0x00, 0x00, 0x00, 0x00, 0x00, 0x00, 0x00, 0xff, 0x36, 0x36, 0x36, 0x36, 0x36, 0x36, 0x36, 0x36
   641 00001039 36363636363636     
   642 00001040 363636363636363F00-        db 0x36, 0x36, 0x36, 0x36, 0x36, 0x36, 0x36, 0x3f, 0x00, 0x00, 0x00, 0x00, 0x00, 0x00, 0x00, 0x00
   642 00001049 00000000000000     
   643 00001050 18181818181F181F00-        db 0x18, 0x18, 0x18, 0x18, 0x18, 0x1f, 0x18, 0x1f, 0x00, 0x00, 0x00, 0x00, 0x00, 0x00, 0x00, 0x00
   643 00001059 00000000000000     
   644 00001060 00000000001F181F18-        db 0x00, 0x00, 0x00, 0x00, 0x00, 0x1f, 0x18, 0x1f, 0x18, 0x18, 0x18, 0x18, 0x18, 0x18, 0x18, 0x18
   644 00001069 18181818181818     
   645 00001070 000000000000003F36-        db 0x00, 0x00, 0x00, 0x00, 0x00, 0x00, 0x00, 0x3f, 0x36, 0x36, 0x36, 0x36, 0x36, 0x36, 0x36, 0x36
   645 00001079 36363636363636     
   646 00001080 36363636363636FF36-        db 0x36, 0x36, 0x36, 0x36, 0x36, 0x36, 0x36, 0xff, 0x36, 0x36, 0x36, 0x36, 0x36, 0x36, 0x36, 0x36
   646 00001089 36363636363636     
   647 00001090 1818181818FF18FF18-        db 0x18, 0x18, 0x18, 0x18, 0x18, 0xff, 0x18, 0xff, 0x18, 0x18, 0x18, 0x18, 0x18, 0x18, 0x18, 0x18
   647 00001099 18181818181818     
   648 000010A0 18181818181818F800-        db 0x18, 0x18, 0x18, 0x18, 0x18, 0x18, 0x18, 0xf8, 0x00, 0x00, 0x00, 0x00, 0x00, 0x00, 0x00, 0x00
   648 000010A9 00000000000000     
   649 000010B0 000000000000001F18-        db 0x00, 0x00, 0x00, 0x00, 0x00, 0x00, 0x00, 0x1f, 0x18, 0x18, 0x18, 0x18, 0x18, 0x18, 0x18, 0x18
   649 000010B9 18181818181818     
   650 000010C0 FFFFFFFFFFFFFFFFFF-        db 0xff, 0xff, 0xff, 0xff, 0xff, 0xff, 0xff, 0xff, 0xff, 0xff, 0xff, 0xff, 0xff, 0xff, 0xff, 0xff
   650 000010C9 FFFFFFFFFFFFFF     
   651 000010D0 00000000000000FFFF-        db 0x00, 0x00, 0x00, 0x00, 0x00, 0x00, 0x00, 0xff, 0xff, 0xff, 0xff, 0xff, 0xff, 0xff, 0xff, 0xff
   651 000010D9 FFFFFFFFFFFFFF     
   652 000010E0 F0F0F0F0F0F0F0F0F0-        db 0xf0, 0xf0, 0xf0, 0xf0, 0xf0, 0xf0, 0xf0, 0xf0, 0xf0, 0xf0, 0xf0, 0xf0, 0xf0, 0xf0, 0xf0, 0xf0
   652 000010E9 F0F0F0F0F0F0F0     
   653 000010F0 0F0F0F0F0F0F0F0F0F-        db 0x0f, 0x0f, 0x0f, 0x0f, 0x0f, 0x0f, 0x0f, 0x0f, 0x0f, 0x0f, 0x0f, 0x0f, 0x0f, 0x0f, 0x0f, 0x0f
   653 000010F9 0F0F0F0F0F0F0F     
   654 00001100 FFFFFFFFFFFFFF0000-        db 0xff, 0xff, 0xff, 0xff, 0xff, 0xff, 0xff, 0x00, 0x00, 0x00, 0x00, 0x00, 0x00, 0x00, 0x00, 0x00
   654 00001109 00000000000000     
   655 00001110 000000000076DCD8D8-        db 0x00, 0x00, 0x00, 0x00, 0x00, 0x76, 0xdc, 0xd8, 0xd8, 0xd8, 0xdc, 0x76, 0x00, 0x00, 0x00, 0x00
   655 00001119 D8DC7600000000     
   656 00001120 000078CCCCCCD8CCC6-        db 0x00, 0x00, 0x78, 0xcc, 0xcc, 0xcc, 0xd8, 0xcc, 0xc6, 0xc6, 0xc6, 0xcc, 0x00, 0x00, 0x00, 0x00
   656 00001129 C6C6CC00000000     
   657 00001130 0000FEC6C6C0C0C0C0-        db 0x00, 0x00, 0xfe, 0xc6, 0xc6, 0xc0, 0xc0, 0xc0, 0xc0, 0xc0, 0xc0, 0xc0, 0x00, 0x00, 0x00, 0x00
   657 00001139 C0C0C000000000     
   658 00001140 00000000FE6C6C6C6C-        db 0x00, 0x00, 0x00, 0x00, 0xfe, 0x6c, 0x6c, 0x6c, 0x6c, 0x6c, 0x6c, 0x6c, 0x00, 0x00, 0x00, 0x00
   658 00001149 6C6C6C00000000     
   659 00001150 000000FEC660301830-        db 0x00, 0x00, 0x00, 0xfe, 0xc6, 0x60, 0x30, 0x18, 0x30, 0x60, 0xc6, 0xfe, 0x00, 0x00, 0x00, 0x00
   659 00001159 60C6FE00000000     
   660 00001160 00000000007ED8D8D8-        db 0x00, 0x00, 0x00, 0x00, 0x00, 0x7e, 0xd8, 0xd8, 0xd8, 0xd8, 0xd8, 0x70, 0x00, 0x00, 0x00, 0x00
   660 00001169 D8D87000000000     
   661 00001170 000000006666666666-        db 0x00, 0x00, 0x00, 0x00, 0x66, 0x66, 0x66, 0x66, 0x66, 0x7c, 0x60, 0x60, 0xc0, 0x00, 0x00, 0x00
   661 00001179 7C6060C0000000     
   662 00001180 0000000076DC181818-        db 0x00, 0x00, 0x00, 0x00, 0x76, 0xdc, 0x18, 0x18, 0x18, 0x18, 0x18, 0x18, 0x00, 0x00, 0x00, 0x00
   662 00001189 18181800000000     
   663 00001190 0000007E183C666666-        db 0x00, 0x00, 0x00, 0x7e, 0x18, 0x3c, 0x66, 0x66, 0x66, 0x3c, 0x18, 0x7e, 0x00, 0x00, 0x00, 0x00
   663 00001199 3C187E00000000     
   664 000011A0 000000386CC6C6FEC6-        db 0x00, 0x00, 0x00, 0x38, 0x6c, 0xc6, 0xc6, 0xfe, 0xc6, 0xc6, 0x6c, 0x38, 0x00, 0x00, 0x00, 0x00
   664 000011A9 C66C3800000000     
   665 000011B0 0000386CC6C6C66C6C-        db 0x00, 0x00, 0x38, 0x6c, 0xc6, 0xc6, 0xc6, 0x6c, 0x6c, 0x6c, 0x6c, 0xee, 0x00, 0x00, 0x00, 0x00
   665 000011B9 6C6CEE00000000     
   666 000011C0 00001E30180C3E6666-        db 0x00, 0x00, 0x1e, 0x30, 0x18, 0x0c, 0x3e, 0x66, 0x66, 0x66, 0x66, 0x3c, 0x00, 0x00, 0x00, 0x00
   666 000011C9 66663C00000000     
   667 000011D0 00000000007EDBDBDB-        db 0x00, 0x00, 0x00, 0x00, 0x00, 0x7e, 0xdb, 0xdb, 0xdb, 0x7e, 0x00, 0x00, 0x00, 0x00, 0x00, 0x00
   667 000011D9 7E000000000000     
   668 000011E0 00000003067EDBDBF3-        db 0x00, 0x00, 0x00, 0x03, 0x06, 0x7e, 0xdb, 0xdb, 0xf3, 0x7e, 0x60, 0xc0, 0x00, 0x00, 0x00, 0x00
   668 000011E9 7E60C000000000     
   669 000011F0 00001C3060607C6060-        db 0x00, 0x00, 0x1c, 0x30, 0x60, 0x60, 0x7c, 0x60, 0x60, 0x60, 0x30, 0x1c, 0x00, 0x00, 0x00, 0x00
   669 000011F9 60301C00000000     
   670 00001200 0000007CC6C6C6C6C6-        db 0x00, 0x00, 0x00, 0x7c, 0xc6, 0xc6, 0xc6, 0xc6, 0xc6, 0xc6, 0xc6, 0xc6, 0x00, 0x00, 0x00, 0x00
   670 00001209 C6C6C600000000     
   671 00001210 00000000FE0000FE00-        db 0x00, 0x00, 0x00, 0x00, 0xfe, 0x00, 0x00, 0xfe, 0x00, 0x00, 0xfe, 0x00, 0x00, 0x00, 0x00, 0x00
   671 00001219 00FE0000000000     
   672 00001220 0000000018187E1818-        db 0x00, 0x00, 0x00, 0x00, 0x18, 0x18, 0x7e, 0x18, 0x18, 0x00, 0x00, 0xff, 0x00, 0x00, 0x00, 0x00
   672 00001229 0000FF00000000     
   673 00001230 00000030180C060C18-        db 0x00, 0x00, 0x00, 0x30, 0x18, 0x0c, 0x06, 0x0c, 0x18, 0x30, 0x00, 0x7e, 0x00, 0x00, 0x00, 0x00
   673 00001239 30007E00000000     
   674 00001240 0000000C1830603018-        db 0x00, 0x00, 0x00, 0x0c, 0x18, 0x30, 0x60, 0x30, 0x18, 0x0c, 0x00, 0x7e, 0x00, 0x00, 0x00, 0x00
   674 00001249 0C007E00000000     
   675 00001250 00000E1B1B18181818-        db 0x00, 0x00, 0x0e, 0x1b, 0x1b, 0x18, 0x18, 0x18, 0x18, 0x18, 0x18, 0x18, 0x18, 0x18, 0x18, 0x18
   675 00001259 18181818181818     
   676 00001260 1818181818181818D8-        db 0x18, 0x18, 0x18, 0x18, 0x18, 0x18, 0x18, 0x18, 0xd8, 0xd8, 0xd8, 0x70, 0x00, 0x00, 0x00, 0x00
   676 00001269 D8D87000000000     
   677 00001270 000000001818007E00-        db 0x00, 0x00, 0x00, 0x00, 0x18, 0x18, 0x00, 0x7e, 0x00, 0x18, 0x18, 0x00, 0x00, 0x00, 0x00, 0x00
   677 00001279 18180000000000     
   678 00001280 000000000076DC0076-        db 0x00, 0x00, 0x00, 0x00, 0x00, 0x76, 0xdc, 0x00, 0x76, 0xdc, 0x00, 0x00, 0x00, 0x00, 0x00, 0x00
   678 00001289 DC000000000000     
   679 00001290 00386C6C3800000000-        db 0x00, 0x38, 0x6c, 0x6c, 0x38, 0x00, 0x00, 0x00, 0x00, 0x00, 0x00, 0x00, 0x00, 0x00, 0x00, 0x00
   679 00001299 00000000000000     
   680 000012A0 000000000000001818-        db 0x00, 0x00, 0x00, 0x00, 0x00, 0x00, 0x00, 0x18, 0x18, 0x00, 0x00, 0x00, 0x00, 0x00, 0x00, 0x00
   680 000012A9 00000000000000     
   681 000012B0 000000000000000018-        db 0x00, 0x00, 0x00, 0x00, 0x00, 0x00, 0x00, 0x00, 0x18, 0x00, 0x00, 0x00, 0x00, 0x00, 0x00, 0x00
   681 000012B9 00000000000000     
   682 000012C0 000F0C0C0C0C0CEC6C-        db 0x00, 0x0f, 0x0c, 0x0c, 0x0c, 0x0c, 0x0c, 0xec, 0x6c, 0x6c, 0x3c, 0x1c, 0x00, 0x00, 0x00, 0x00
   682 000012C9 6C3C1C00000000     
   683 000012D0 00D86C6C6C6C6C0000-        db 0x00, 0xd8, 0x6c, 0x6c, 0x6c, 0x6c, 0x6c, 0x00, 0x00, 0x00, 0x00, 0x00, 0x00, 0x00, 0x00, 0x00
   683 000012D9 00000000000000     
   684 000012E0 0070D83060C8F80000-        db 0x00, 0x70, 0xd8, 0x30, 0x60, 0xc8, 0xf8, 0x00, 0x00, 0x00, 0x00, 0x00, 0x00, 0x00, 0x00, 0x00
   684 000012E9 00000000000000     
   685 000012F0 000000007C7C7C7C7C-        db 0x00, 0x00, 0x00, 0x00, 0x7c, 0x7c, 0x7c, 0x7c, 0x7c, 0x7c, 0x7c, 0x00, 0x00, 0x00, 0x00, 0x00
   685 000012F9 7C7C0000000000     
   686 00001300 000000000000000000-        db 0x00, 0x00, 0x00, 0x00, 0x00, 0x00, 0x00, 0x00, 0x00, 0x00, 0x00, 0x00, 0x00, 0x00, 0x00, 0x00
   686 00001309 00000000000000     
   687                                  
